Archive member included to satisfy reference by file (symbol)

/root/hpc/x86_64-native-linuxapp-gcc/lib/librte_mbuf.a(rte_mbuf.o)
                              (--whole-archive)
/root/hpc/x86_64-native-linuxapp-gcc/lib/librte_malloc.a(rte_malloc.o)
                              (--whole-archive)
/root/hpc/x86_64-native-linuxapp-gcc/lib/librte_malloc.a(malloc_elem.o)
                              (--whole-archive)
/root/hpc/x86_64-native-linuxapp-gcc/lib/librte_malloc.a(malloc_heap.o)
                              (--whole-archive)
/root/hpc/x86_64-native-linuxapp-gcc/lib/librte_mempool.a(rte_mempool.o)
                              (--whole-archive)
/root/hpc/x86_64-native-linuxapp-gcc/lib/librte_ring.a(rte_ring.o)
                              (--whole-archive)
/root/hpc/x86_64-native-linuxapp-gcc/lib/librte_eal.a(eal.o)
                              (--whole-archive)
/root/hpc/x86_64-native-linuxapp-gcc/lib/librte_eal.a(eal_hugepage_info.o)
                              (--whole-archive)
/root/hpc/x86_64-native-linuxapp-gcc/lib/librte_eal.a(eal_memory.o)
                              (--whole-archive)
/root/hpc/x86_64-native-linuxapp-gcc/lib/librte_eal.a(eal_thread.o)
                              (--whole-archive)
/root/hpc/x86_64-native-linuxapp-gcc/lib/librte_eal.a(eal_log.o)
                              (--whole-archive)
/root/hpc/x86_64-native-linuxapp-gcc/lib/librte_eal.a(eal_debug.o)
                              (--whole-archive)
/root/hpc/x86_64-native-linuxapp-gcc/lib/librte_eal.a(eal_lcore.o)
                              (--whole-archive)
/root/hpc/x86_64-native-linuxapp-gcc/lib/librte_eal.a(eal_timer.o)
                              (--whole-archive)
/root/hpc/x86_64-native-linuxapp-gcc/lib/librte_eal.a(eal_common_memzone.o)
                              (--whole-archive)
/root/hpc/x86_64-native-linuxapp-gcc/lib/librte_eal.a(eal_common_log.o)
                              (--whole-archive)
/root/hpc/x86_64-native-linuxapp-gcc/lib/librte_eal.a(eal_common_launch.o)
                              (--whole-archive)
/root/hpc/x86_64-native-linuxapp-gcc/lib/librte_eal.a(eal_common_memory.o)
                              (--whole-archive)
/root/hpc/x86_64-native-linuxapp-gcc/lib/librte_eal.a(eal_common_tailqs.o)
                              (--whole-archive)
/root/hpc/x86_64-native-linuxapp-gcc/lib/librte_eal.a(eal_common_errno.o)
                              (--whole-archive)
/root/hpc/x86_64-native-linuxapp-gcc/lib/librte_eal.a(eal_common_cpuflags.o)
                              (--whole-archive)
/root/hpc/x86_64-native-linuxapp-gcc/lib/librte_eal.a(eal_common_string_fns.o)
                              (--whole-archive)
/root/hpc/x86_64-native-linuxapp-gcc/lib/librte_eal.a(eal_common_hexdump.o)
                              (--whole-archive)
/root/hpc/x86_64-native-linuxapp-gcc/lib/librte_eal.a(eal_common_devargs.o)
                              (--whole-archive)
/root/hpc/x86_64-native-linuxapp-gcc/lib/librte_eal.a(eal_common_dev.o)
                              (--whole-archive)
/root/hpc/x86_64-native-linuxapp-gcc/lib/librte_eal.a(eal_common_options.o)
                              (--whole-archive)
/root/hpc/x86_64-native-linuxapp-gcc/lib/librte_eal.a(eal_common_thread.o)
                              (--whole-archive)
/root/hpc/x86_64-native-linuxapp-gcc/lib/librte_cmdline.a(cmdline.o)
                              (--whole-archive)
/root/hpc/x86_64-native-linuxapp-gcc/lib/librte_cmdline.a(cmdline_cirbuf.o)
                              (--whole-archive)
/root/hpc/x86_64-native-linuxapp-gcc/lib/librte_cmdline.a(cmdline_parse.o)
                              (--whole-archive)
/root/hpc/x86_64-native-linuxapp-gcc/lib/librte_cmdline.a(cmdline_parse_etheraddr.o)
                              (--whole-archive)
/root/hpc/x86_64-native-linuxapp-gcc/lib/librte_cmdline.a(cmdline_parse_ipaddr.o)
                              (--whole-archive)
/root/hpc/x86_64-native-linuxapp-gcc/lib/librte_cmdline.a(cmdline_parse_num.o)
                              (--whole-archive)
/root/hpc/x86_64-native-linuxapp-gcc/lib/librte_cmdline.a(cmdline_parse_string.o)
                              (--whole-archive)
/root/hpc/x86_64-native-linuxapp-gcc/lib/librte_cmdline.a(cmdline_rdline.o)
                              (--whole-archive)
/root/hpc/x86_64-native-linuxapp-gcc/lib/librte_cmdline.a(cmdline_vt100.o)
                              (--whole-archive)
/root/hpc/x86_64-native-linuxapp-gcc/lib/librte_cmdline.a(cmdline_socket.o)
                              (--whole-archive)
/root/hpc/x86_64-native-linuxapp-gcc/lib/librte_cmdline.a(cmdline_parse_portlist.o)
                              (--whole-archive)
/root/hpc/x86_64-native-linuxapp-gcc/lib/librte_cfgfile.a(rte_cfgfile.o)
                              (--whole-archive)
/usr/lib/x86_64-linux-gnu/libc_nonshared.a(elf-init.oS)
                              /usr/lib/gcc/x86_64-linux-gnu/4.8/../../../x86_64-linux-gnu/crt1.o (__libc_csu_init)

Allocating common symbols
Common symbol       size              file

global_obj_list     0x8               commands.o
internal_config     0x148             /root/hpc/x86_64-native-linuxapp-gcc/lib/librte_eal.a(eal.o)
lcore_config        0x6400            /root/hpc/x86_64-native-linuxapp-gcc/lib/librte_eal.a(eal.o)

Discarded input sections

 .note.GNU-stack
                0x0000000000000000        0x0 /usr/lib/gcc/x86_64-linux-gnu/4.8/../../../x86_64-linux-gnu/crt1.o
 .gnu_debuglink
                0x0000000000000000        0xc /usr/lib/gcc/x86_64-linux-gnu/4.8/../../../x86_64-linux-gnu/crt1.o
 .note.GNU-stack
                0x0000000000000000        0x0 /usr/lib/gcc/x86_64-linux-gnu/4.8/../../../x86_64-linux-gnu/crti.o
 .gnu_debuglink
                0x0000000000000000        0xc /usr/lib/gcc/x86_64-linux-gnu/4.8/../../../x86_64-linux-gnu/crti.o
 .note.GNU-stack
                0x0000000000000000        0x0 /usr/lib/gcc/x86_64-linux-gnu/4.8/crtbegin.o
 .note.GNU-stack
                0x0000000000000000        0x0 main.o
 .note.GNU-stack
                0x0000000000000000        0x0 commands.o
 .note.GNU-stack
                0x0000000000000000        0x0 parse_obj_list.o
 .note.GNU-stack
                0x0000000000000000        0x0 /root/hpc/x86_64-native-linuxapp-gcc/lib/librte_mbuf.a(rte_mbuf.o)
 .note.GNU-stack
                0x0000000000000000        0x0 /root/hpc/x86_64-native-linuxapp-gcc/lib/librte_malloc.a(rte_malloc.o)
 .note.GNU-stack
                0x0000000000000000        0x0 /root/hpc/x86_64-native-linuxapp-gcc/lib/librte_malloc.a(malloc_elem.o)
 .note.GNU-stack
                0x0000000000000000        0x0 /root/hpc/x86_64-native-linuxapp-gcc/lib/librte_malloc.a(malloc_heap.o)
 .note.GNU-stack
                0x0000000000000000        0x0 /root/hpc/x86_64-native-linuxapp-gcc/lib/librte_mempool.a(rte_mempool.o)
 .note.GNU-stack
                0x0000000000000000        0x0 /root/hpc/x86_64-native-linuxapp-gcc/lib/librte_ring.a(rte_ring.o)
 .note.GNU-stack
                0x0000000000000000        0x0 /root/hpc/x86_64-native-linuxapp-gcc/lib/librte_eal.a(eal.o)
 .note.GNU-stack
                0x0000000000000000        0x0 /root/hpc/x86_64-native-linuxapp-gcc/lib/librte_eal.a(eal_hugepage_info.o)
 .note.GNU-stack
                0x0000000000000000        0x0 /root/hpc/x86_64-native-linuxapp-gcc/lib/librte_eal.a(eal_memory.o)
 .note.GNU-stack
                0x0000000000000000        0x0 /root/hpc/x86_64-native-linuxapp-gcc/lib/librte_eal.a(eal_thread.o)
 .note.GNU-stack
                0x0000000000000000        0x0 /root/hpc/x86_64-native-linuxapp-gcc/lib/librte_eal.a(eal_log.o)
 .note.GNU-stack
                0x0000000000000000        0x0 /root/hpc/x86_64-native-linuxapp-gcc/lib/librte_eal.a(eal_debug.o)
 .note.GNU-stack
                0x0000000000000000        0x0 /root/hpc/x86_64-native-linuxapp-gcc/lib/librte_eal.a(eal_lcore.o)
 .note.GNU-stack
                0x0000000000000000        0x0 /root/hpc/x86_64-native-linuxapp-gcc/lib/librte_eal.a(eal_timer.o)
 .note.GNU-stack
                0x0000000000000000        0x0 /root/hpc/x86_64-native-linuxapp-gcc/lib/librte_eal.a(eal_common_memzone.o)
 .note.GNU-stack
                0x0000000000000000        0x0 /root/hpc/x86_64-native-linuxapp-gcc/lib/librte_eal.a(eal_common_log.o)
 .note.GNU-stack
                0x0000000000000000        0x0 /root/hpc/x86_64-native-linuxapp-gcc/lib/librte_eal.a(eal_common_launch.o)
 .note.GNU-stack
                0x0000000000000000        0x0 /root/hpc/x86_64-native-linuxapp-gcc/lib/librte_eal.a(eal_common_memory.o)
 .note.GNU-stack
                0x0000000000000000        0x0 /root/hpc/x86_64-native-linuxapp-gcc/lib/librte_eal.a(eal_common_tailqs.o)
 .note.GNU-stack
                0x0000000000000000        0x0 /root/hpc/x86_64-native-linuxapp-gcc/lib/librte_eal.a(eal_common_errno.o)
 .note.GNU-stack
                0x0000000000000000        0x0 /root/hpc/x86_64-native-linuxapp-gcc/lib/librte_eal.a(eal_common_cpuflags.o)
 .note.GNU-stack
                0x0000000000000000        0x0 /root/hpc/x86_64-native-linuxapp-gcc/lib/librte_eal.a(eal_common_string_fns.o)
 .note.GNU-stack
                0x0000000000000000        0x0 /root/hpc/x86_64-native-linuxapp-gcc/lib/librte_eal.a(eal_common_hexdump.o)
 .note.GNU-stack
                0x0000000000000000        0x0 /root/hpc/x86_64-native-linuxapp-gcc/lib/librte_eal.a(eal_common_devargs.o)
 .note.GNU-stack
                0x0000000000000000        0x0 /root/hpc/x86_64-native-linuxapp-gcc/lib/librte_eal.a(eal_common_dev.o)
 .note.GNU-stack
                0x0000000000000000        0x0 /root/hpc/x86_64-native-linuxapp-gcc/lib/librte_eal.a(eal_common_options.o)
 .note.GNU-stack
                0x0000000000000000        0x0 /root/hpc/x86_64-native-linuxapp-gcc/lib/librte_eal.a(eal_common_thread.o)
 .note.GNU-stack
                0x0000000000000000        0x0 /root/hpc/x86_64-native-linuxapp-gcc/lib/librte_cmdline.a(cmdline.o)
 .note.GNU-stack
                0x0000000000000000        0x0 /root/hpc/x86_64-native-linuxapp-gcc/lib/librte_cmdline.a(cmdline_cirbuf.o)
 .note.GNU-stack
                0x0000000000000000        0x0 /root/hpc/x86_64-native-linuxapp-gcc/lib/librte_cmdline.a(cmdline_parse.o)
 .note.GNU-stack
                0x0000000000000000        0x0 /root/hpc/x86_64-native-linuxapp-gcc/lib/librte_cmdline.a(cmdline_parse_etheraddr.o)
 .note.GNU-stack
                0x0000000000000000        0x0 /root/hpc/x86_64-native-linuxapp-gcc/lib/librte_cmdline.a(cmdline_parse_ipaddr.o)
 .note.GNU-stack
                0x0000000000000000        0x0 /root/hpc/x86_64-native-linuxapp-gcc/lib/librte_cmdline.a(cmdline_parse_num.o)
 .note.GNU-stack
                0x0000000000000000        0x0 /root/hpc/x86_64-native-linuxapp-gcc/lib/librte_cmdline.a(cmdline_parse_string.o)
 .note.GNU-stack
                0x0000000000000000        0x0 /root/hpc/x86_64-native-linuxapp-gcc/lib/librte_cmdline.a(cmdline_rdline.o)
 .note.GNU-stack
                0x0000000000000000        0x0 /root/hpc/x86_64-native-linuxapp-gcc/lib/librte_cmdline.a(cmdline_vt100.o)
 .note.GNU-stack
                0x0000000000000000        0x0 /root/hpc/x86_64-native-linuxapp-gcc/lib/librte_cmdline.a(cmdline_socket.o)
 .note.GNU-stack
                0x0000000000000000        0x0 /root/hpc/x86_64-native-linuxapp-gcc/lib/librte_cmdline.a(cmdline_parse_portlist.o)
 .note.GNU-stack
                0x0000000000000000        0x0 /root/hpc/x86_64-native-linuxapp-gcc/lib/librte_cfgfile.a(rte_cfgfile.o)
 .note.GNU-stack
                0x0000000000000000        0x0 /usr/lib/x86_64-linux-gnu/libc_nonshared.a(elf-init.oS)
 .note.GNU-stack
                0x0000000000000000        0x0 /usr/lib/gcc/x86_64-linux-gnu/4.8/crtend.o
 .note.GNU-stack
                0x0000000000000000        0x0 /usr/lib/gcc/x86_64-linux-gnu/4.8/../../../x86_64-linux-gnu/crtn.o
 .gnu_debuglink
                0x0000000000000000        0xc /usr/lib/gcc/x86_64-linux-gnu/4.8/../../../x86_64-linux-gnu/crtn.o

Memory Configuration

Name             Origin             Length             Attributes
*default*        0x0000000000000000 0xffffffffffffffff

Linker script and memory map

LOAD /usr/lib/gcc/x86_64-linux-gnu/4.8/../../../x86_64-linux-gnu/crt1.o
LOAD /usr/lib/gcc/x86_64-linux-gnu/4.8/../../../x86_64-linux-gnu/crti.o
LOAD /usr/lib/gcc/x86_64-linux-gnu/4.8/crtbegin.o
LOAD main.o
LOAD commands.o
LOAD parse_obj_list.o
START GROUP
LOAD /root/hpc/x86_64-native-linuxapp-gcc/lib/librte_mbuf.a
LOAD /root/hpc/x86_64-native-linuxapp-gcc/lib/librte_malloc.a
LOAD /root/hpc/x86_64-native-linuxapp-gcc/lib/librte_mempool.a
LOAD /root/hpc/x86_64-native-linuxapp-gcc/lib/librte_ring.a
LOAD /root/hpc/x86_64-native-linuxapp-gcc/lib/librte_eal.a
LOAD /root/hpc/x86_64-native-linuxapp-gcc/lib/librte_cmdline.a
LOAD /root/hpc/x86_64-native-linuxapp-gcc/lib/librte_cfgfile.a
LOAD /usr/lib/gcc/x86_64-linux-gnu/4.8/../../../x86_64-linux-gnu/librt.so
LOAD /usr/lib/gcc/x86_64-linux-gnu/4.8/../../../x86_64-linux-gnu/libm.so
LOAD /usr/lib/gcc/x86_64-linux-gnu/4.8/../../../x86_64-linux-gnu/libdl.so
END GROUP
LOAD /usr/lib/gcc/x86_64-linux-gnu/4.8/libgcc.a
LOAD /usr/lib/gcc/x86_64-linux-gnu/4.8/libgcc_s.so
LOAD /usr/lib/gcc/x86_64-linux-gnu/4.8/../../../x86_64-linux-gnu/libpthread.so
START GROUP
LOAD /lib/x86_64-linux-gnu/libpthread.so.0
LOAD /usr/lib/x86_64-linux-gnu/libpthread_nonshared.a
END GROUP
LOAD /usr/lib/gcc/x86_64-linux-gnu/4.8/../../../x86_64-linux-gnu/libc.so
START GROUP
LOAD /lib/x86_64-linux-gnu/libc.so.6
LOAD /usr/lib/x86_64-linux-gnu/libc_nonshared.a
LOAD /lib/x86_64-linux-gnu/ld-linux-x86-64.so.2
END GROUP
LOAD /usr/lib/gcc/x86_64-linux-gnu/4.8/libgcc.a
LOAD /usr/lib/gcc/x86_64-linux-gnu/4.8/libgcc_s.so
LOAD /usr/lib/gcc/x86_64-linux-gnu/4.8/crtend.o
LOAD /usr/lib/gcc/x86_64-linux-gnu/4.8/../../../x86_64-linux-gnu/crtn.o
                0x0000000000400000                PROVIDE (__executable_start, 0x400000)
                0x0000000000400270                . = (0x400000 + SIZEOF_HEADERS)

.interp         0x0000000000400270       0x1c
 *(.interp)
 .interp        0x0000000000400270       0x1c /usr/lib/gcc/x86_64-linux-gnu/4.8/../../../x86_64-linux-gnu/crt1.o

.note.ABI-tag   0x000000000040028c       0x20
 .note.ABI-tag  0x000000000040028c       0x20 /usr/lib/gcc/x86_64-linux-gnu/4.8/../../../x86_64-linux-gnu/crt1.o

.note.gnu.build-id
                0x00000000004002ac       0x24
 *(.note.gnu.build-id)
 .note.gnu.build-id
                0x00000000004002ac       0x24 /usr/lib/gcc/x86_64-linux-gnu/4.8/../../../x86_64-linux-gnu/crt1.o

.hash
 *(.hash)

.gnu.hash       0x00000000004002d0      0x824
 *(.gnu.hash)
 .gnu.hash      0x00000000004002d0      0x824 /usr/lib/gcc/x86_64-linux-gnu/4.8/../../../x86_64-linux-gnu/crt1.o

.dynsym         0x0000000000400af8     0x21f0
 *(.dynsym)
 .dynsym        0x0000000000400af8     0x21f0 /usr/lib/gcc/x86_64-linux-gnu/4.8/../../../x86_64-linux-gnu/crt1.o

.dynstr         0x0000000000402ce8     0x1669
 *(.dynstr)
 .dynstr        0x0000000000402ce8     0x1669 /usr/lib/gcc/x86_64-linux-gnu/4.8/../../../x86_64-linux-gnu/crt1.o

.gnu.version    0x0000000000404352      0x2d4
 *(.gnu.version)
 .gnu.version   0x0000000000404352      0x2d4 /usr/lib/gcc/x86_64-linux-gnu/4.8/../../../x86_64-linux-gnu/crt1.o

.gnu.version_d  0x0000000000404628        0x0
 *(.gnu.version_d)
 .gnu.version_d
                0x0000000000000000        0x0 /usr/lib/gcc/x86_64-linux-gnu/4.8/../../../x86_64-linux-gnu/crt1.o

.gnu.version_r  0x0000000000404628       0xe0
 *(.gnu.version_r)
 .gnu.version_r
                0x0000000000404628       0xe0 /usr/lib/gcc/x86_64-linux-gnu/4.8/../../../x86_64-linux-gnu/crt1.o

.rela.dyn       0x0000000000404708       0xf0
 *(.rela.init)
 *(.rela.text .rela.text.* .rela.gnu.linkonce.t.*)
 .rela.text     0x0000000000000000        0x0 /usr/lib/gcc/x86_64-linux-gnu/4.8/../../../x86_64-linux-gnu/crt1.o
 .rela.text.startup
                0x0000000000000000        0x0 /usr/lib/gcc/x86_64-linux-gnu/4.8/../../../x86_64-linux-gnu/crt1.o
 .rela.text.unlikely
                0x0000000000000000        0x0 /usr/lib/gcc/x86_64-linux-gnu/4.8/../../../x86_64-linux-gnu/crt1.o
 *(.rela.fini)
 *(.rela.rodata .rela.rodata.* .rela.gnu.linkonce.r.*)
 *(.rela.data .rela.data.* .rela.gnu.linkonce.d.*)
 .rela.data     0x0000000000000000        0x0 /usr/lib/gcc/x86_64-linux-gnu/4.8/../../../x86_64-linux-gnu/crt1.o
 *(.rela.tdata .rela.tdata.* .rela.gnu.linkonce.td.*)
 *(.rela.tbss .rela.tbss.* .rela.gnu.linkonce.tb.*)
 *(.rela.ctors)
 *(.rela.dtors)
 *(.rela.got)
 .rela.got      0x0000000000404708       0x78 /usr/lib/gcc/x86_64-linux-gnu/4.8/../../../x86_64-linux-gnu/crt1.o
 *(.rela.bss .rela.bss.* .rela.gnu.linkonce.b.*)
 .rela.bss      0x0000000000404780       0x78 /usr/lib/gcc/x86_64-linux-gnu/4.8/../../../x86_64-linux-gnu/crt1.o
 *(.rela.ldata .rela.ldata.* .rela.gnu.linkonce.l.*)
 *(.rela.lbss .rela.lbss.* .rela.gnu.linkonce.lb.*)
 *(.rela.lrodata .rela.lrodata.* .rela.gnu.linkonce.lr.*)
 *(.rela.ifunc)

.rela.plt       0x00000000004047f8      0x990
 *(.rela.plt)
 .rela.plt      0x00000000004047f8      0x990 /usr/lib/gcc/x86_64-linux-gnu/4.8/../../../x86_64-linux-gnu/crt1.o
                0x0000000000405188                PROVIDE (__rela_iplt_start, .)
 *(.rela.iplt)
 .rela.iplt     0x0000000000000000        0x0 /usr/lib/gcc/x86_64-linux-gnu/4.8/../../../x86_64-linux-gnu/crt1.o
                0x0000000000405188                PROVIDE (__rela_iplt_end, .)

.init           0x0000000000405188       0x1a
 *(SORT(.init))
 .init          0x0000000000405188       0x15 /usr/lib/gcc/x86_64-linux-gnu/4.8/../../../x86_64-linux-gnu/crti.o
                0x0000000000405188                _init
 .init          0x000000000040519d        0x5 /usr/lib/gcc/x86_64-linux-gnu/4.8/../../../x86_64-linux-gnu/crtn.o

.plt            0x00000000004051b0      0x670
 *(.plt)
 .plt           0x00000000004051b0      0x670 /usr/lib/gcc/x86_64-linux-gnu/4.8/../../../x86_64-linux-gnu/crt1.o
                0x00000000004051c0                getenv@@GLIBC_2.2.5
                0x00000000004051d0                __snprintf_chk@@GLIBC_2.3.4
                0x00000000004051e0                free@@GLIBC_2.2.5
                0x00000000004051f0                pthread_create@@GLIBC_2.2.5
                0x0000000000405200                __vfprintf_chk@@GLIBC_2.3.4
                0x0000000000405210                abort@@GLIBC_2.2.5
                0x0000000000405220                __errno_location@@GLIBC_2.2.5
                0x0000000000405230                mlock@@GLIBC_2.2.5
                0x0000000000405240                unlink@@GLIBC_2.2.5
                0x0000000000405250                strncpy@@GLIBC_2.2.5
                0x0000000000405260                strncmp@@GLIBC_2.2.5
                0x0000000000405270                fopencookie@@GLIBC_2.2.5
                0x0000000000405280                unlinkat@@GLIBC_2.4
                0x0000000000405290                puts@@GLIBC_2.2.5
                0x00000000004052a0                backtrace_symbols@@GLIBC_2.2.5
                0x00000000004052b0                __xpg_strerror_r@@GLIBC_2.3.4
                0x00000000004052c0                fcntl@@GLIBC_2.2.5
                0x00000000004052d0                write@@GLIBC_2.2.5
                0x00000000004052e0                fclose@@GLIBC_2.2.5
                0x00000000004052f0                opendir@@GLIBC_2.2.5
                0x0000000000405300                strlen@@GLIBC_2.2.5
                0x0000000000405310                backtrace@@GLIBC_2.2.5
                0x0000000000405320                openat@@GLIBC_2.4
                0x0000000000405330                __stack_chk_fail@@GLIBC_2.4
                0x0000000000405340                getuid@@GLIBC_2.2.5
                0x0000000000405350                mmap@@GLIBC_2.2.5
                0x0000000000405360                getopt_long@@GLIBC_2.2.5
                0x0000000000405370                setbuf@@GLIBC_2.2.5
                0x0000000000405380                pthread_setaffinity_np@@GLIBC_2.3.4
                0x0000000000405390                strchr@@GLIBC_2.2.5
                0x00000000004053a0                snprintf@@GLIBC_2.2.5
                0x00000000004053b0                nanosleep@@GLIBC_2.2.5
                0x00000000004053c0                strrchr@@GLIBC_2.2.5
                0x00000000004053d0                ftruncate@@GLIBC_2.2.5
                0x00000000004053e0                __assert_fail@@GLIBC_2.2.5
                0x00000000004053f0                iopl@@GLIBC_2.2.5
                0x0000000000405400                fputs@@GLIBC_2.2.5
                0x0000000000405410                fnmatch@@GLIBC_2.2.5
                0x0000000000405420                memset@@GLIBC_2.2.5
                0x0000000000405430                fscanf@@GLIBC_2.2.5
                0x0000000000405440                index@@GLIBC_2.2.5
                0x0000000000405450                strnlen@@GLIBC_2.2.5
                0x0000000000405460                close@@GLIBC_2.2.5
                0x0000000000405470                pipe@@GLIBC_2.2.5
                0x0000000000405480                closedir@@GLIBC_2.2.5
                0x0000000000405490                fputc@@GLIBC_2.2.5
                0x00000000004054a0                __strdup@@GLIBC_2.2.5
                0x00000000004054b0                memchr@@GLIBC_2.2.5
                0x00000000004054c0                read@@GLIBC_2.2.5
                0x00000000004054d0                __libc_start_main@@GLIBC_2.2.5
                0x00000000004054e0                memcmp@@GLIBC_2.2.5
                0x00000000004054f0                fgets@@GLIBC_2.2.5
                0x0000000000405500                strtoull@@GLIBC_2.2.5
                0x0000000000405510                calloc@@GLIBC_2.2.5
                0x0000000000405520                __vdprintf_chk@@GLIBC_2.8
                0x0000000000405530                __fxstat64@@GLIBC_2.2.5
                0x0000000000405540                strcmp@@GLIBC_2.2.5
                0x0000000000405550                dirfd@@GLIBC_2.2.5
                0x0000000000405560                __memcpy_chk@@GLIBC_2.3.4
                0x0000000000405570                syscall@@GLIBC_2.2.5
                0x0000000000405580                feof@@GLIBC_2.2.5
                0x00000000004055a0                fopen64@@GLIBC_2.2.5
                0x00000000004055b0                strtol@@GLIBC_2.2.5
                0x00000000004055c0                memcpy@@GLIBC_2.14
                0x00000000004055d0                fileno@@GLIBC_2.2.5
                0x00000000004055e0                readdir@@GLIBC_2.2.5
                0x00000000004055f0                dlopen@@GLIBC_2.2.5
                0x0000000000405600                mmap64@@GLIBC_2.2.5
                0x0000000000405610                malloc@@GLIBC_2.2.5
                0x0000000000405620                strncasecmp@@GLIBC_2.2.5
                0x0000000000405630                fflush@@GLIBC_2.2.5
                0x0000000000405640                clock_gettime@@GLIBC_2.2.5
                0x0000000000405650                realloc@@GLIBC_2.2.5
                0x0000000000405660                srand48@@GLIBC_2.2.5
                0x0000000000405670                munmap@@GLIBC_2.2.5
                0x0000000000405680                ftruncate64@@GLIBC_2.2.5
                0x0000000000405690                __printf_chk@@GLIBC_2.3.4
                0x00000000004056a0                poll@@GLIBC_2.2.5
                0x00000000004056b0                open64@@GLIBC_2.2.5
                0x00000000004056c0                memmove@@GLIBC_2.2.5
                0x00000000004056d0                __syslog_chk@@GLIBC_2.4
                0x00000000004056e0                pthread_self@@GLIBC_2.2.5
                0x00000000004056f0                tcgetattr@@GLIBC_2.2.5
                0x0000000000405700                tcsetattr@@GLIBC_2.2.5
                0x0000000000405710                open@@GLIBC_2.2.5
                0x0000000000405720                access@@GLIBC_2.2.5
                0x0000000000405730                fopen@@GLIBC_2.2.5
                0x0000000000405740                sysconf@@GLIBC_2.2.5
                0x0000000000405750                strtoul@@GLIBC_2.2.5
                0x0000000000405760                flock@@GLIBC_2.2.5
                0x0000000000405770                openlog@@GLIBC_2.2.5
                0x0000000000405780                getpagesize@@GLIBC_2.2.5
                0x0000000000405790                exit@@GLIBC_2.2.5
                0x00000000004057a0                fwrite@@GLIBC_2.2.5
                0x00000000004057b0                lseek64@@GLIBC_2.2.5
                0x00000000004057c0                __fprintf_chk@@GLIBC_2.3.4
                0x00000000004057d0                strerror@@GLIBC_2.2.5
                0x00000000004057e0                sleep@@GLIBC_2.2.5
                0x00000000004057f0                strstr@@GLIBC_2.2.5
                0x0000000000405800                dlerror@@GLIBC_2.2.5
                0x0000000000405810                __ctype_b_loc@@GLIBC_2.3
 *(.iplt)
 .iplt          0x0000000000000000        0x0 /usr/lib/gcc/x86_64-linux-gnu/4.8/../../../x86_64-linux-gnu/crt1.o

.text           0x0000000000405820    0x144a2
 *(.text.unlikely .text.*_unlikely .text.unlikely.*)
 .text.unlikely
                0x0000000000405820       0xc6 /root/hpc/x86_64-native-linuxapp-gcc/lib/librte_eal.a(eal_debug.o)
                0x0000000000405820                __rte_panic
 .text.unlikely
                0x00000000004058e6       0x8a /root/hpc/x86_64-native-linuxapp-gcc/lib/librte_eal.a(eal_common_log.o)
                0x00000000004058e6                rte_log
 *(.text.exit .text.exit.*)
 *(.text.startup .text.startup.*)
 .text.startup  0x0000000000405970       0x61 main.o
                0x0000000000405970                main
 *fill*         0x00000000004059d1        0xf 
 .text.startup  0x00000000004059e0       0x2c /root/hpc/x86_64-native-linuxapp-gcc/lib/librte_malloc.a(rte_malloc.o)
 *fill*         0x0000000000405a0c        0x4 
 .text.startup  0x0000000000405a10       0x2c /root/hpc/x86_64-native-linuxapp-gcc/lib/librte_malloc.a(malloc_elem.o)
 *fill*         0x0000000000405a3c        0x4 
 .text.startup  0x0000000000405a40       0x2c /root/hpc/x86_64-native-linuxapp-gcc/lib/librte_malloc.a(malloc_heap.o)
 *fill*         0x0000000000405a6c        0x4 
 .text.startup  0x0000000000405a70       0x62 /root/hpc/x86_64-native-linuxapp-gcc/lib/librte_mempool.a(rte_mempool.o)
                0x0000000000405aa0                tailqinitfn_rte_mempool_tailq
 *fill*         0x0000000000405ad2        0xe 
 .text.startup  0x0000000000405ae0       0x62 /root/hpc/x86_64-native-linuxapp-gcc/lib/librte_ring.a(rte_ring.o)
                0x0000000000405b10                tailqinitfn_rte_ring_tailq
 *fill*         0x0000000000405b42        0xe 
 .text.startup  0x0000000000405b50       0x2c /root/hpc/x86_64-native-linuxapp-gcc/lib/librte_eal.a(eal.o)
 *fill*         0x0000000000405b7c        0x4 
 .text.startup  0x0000000000405b80       0x2c /root/hpc/x86_64-native-linuxapp-gcc/lib/librte_eal.a(eal_memory.o)
 *fill*         0x0000000000405bac        0x4 
 .text.startup  0x0000000000405bb0       0x2c /root/hpc/x86_64-native-linuxapp-gcc/lib/librte_eal.a(eal_log.o)
 *fill*         0x0000000000405bdc        0x4 
 .text.startup  0x0000000000405be0       0x2c /root/hpc/x86_64-native-linuxapp-gcc/lib/librte_eal.a(eal_common_memzone.o)
 *fill*         0x0000000000405c0c        0x4 
 .text.startup  0x0000000000405c10       0x2c /root/hpc/x86_64-native-linuxapp-gcc/lib/librte_eal.a(eal_common_log.o)
 *fill*         0x0000000000405c3c        0x4 
 .text.startup  0x0000000000405c40       0x2c /root/hpc/x86_64-native-linuxapp-gcc/lib/librte_eal.a(eal_common_memory.o)
 *fill*         0x0000000000405c6c        0x4 
 .text.startup  0x0000000000405c70       0x2c /root/hpc/x86_64-native-linuxapp-gcc/lib/librte_eal.a(eal_common_tailqs.o)
 *fill*         0x0000000000405c9c        0x4 
 .text.startup  0x0000000000405ca0      0x104 /root/hpc/x86_64-native-linuxapp-gcc/lib/librte_eal.a(eal_common_cpuflags.o)
                0x0000000000405ca0                rte_cpu_check_supported
 *(.text.hot .text.hot.*)
 *(.text .stub .text.* .gnu.linkonce.t.*)
 .text          0x0000000000405da4       0x2a /usr/lib/gcc/x86_64-linux-gnu/4.8/../../../x86_64-linux-gnu/crt1.o
                0x0000000000405da4                _start
 .text          0x0000000000405dce        0x0 /usr/lib/gcc/x86_64-linux-gnu/4.8/../../../x86_64-linux-gnu/crti.o
 *fill*         0x0000000000405dce        0x2 
 .text          0x0000000000405dd0       0xbd /usr/lib/gcc/x86_64-linux-gnu/4.8/crtbegin.o
 .text          0x0000000000405e8d        0x0 main.o
 *fill*         0x0000000000405e8d        0x3 
 .text          0x0000000000405e90      0x411 commands.o
 *fill*         0x00000000004062a1        0xf 
 .text          0x00000000004062b0      0x1aa parse_obj_list.o
                0x00000000004062b0                complete_get_nb_obj_list
                0x00000000004062d0                parse_obj_list
                0x00000000004063a0                get_help_obj_list
                0x00000000004063c0                complete_get_elt_obj_list
 *fill*         0x000000000040645a        0x6 
 .text          0x0000000000406460      0x662 /root/hpc/x86_64-native-linuxapp-gcc/lib/librte_mbuf.a(rte_mbuf.o)
                0x0000000000406460                rte_pktmbuf_pool_init
                0x00000000004064b0                rte_pktmbuf_init
                0x0000000000406580                rte_ctrlmbuf_init
                0x0000000000406660                rte_pktmbuf_pool_create
                0x00000000004066c0                rte_mbuf_sanity_check
                0x00000000004067a0                rte_pktmbuf_dump
                0x0000000000406880                rte_get_rx_ol_flag_name
                0x0000000000406980                rte_get_tx_ol_flag_name
 *fill*         0x0000000000406ac2        0xe 
 .text          0x0000000000406ad0     0x2523 /root/hpc/x86_64-native-linuxapp-gcc/lib/librte_malloc.a(rte_malloc.o)
                0x0000000000406ad0                rte_free
                0x0000000000406b30                rte_malloc_socket
                0x0000000000406c90                rte_malloc
                0x0000000000406df0                rte_zmalloc_socket
                0x0000000000406f80                rte_zmalloc
                0x0000000000407100                rte_calloc_socket
                0x0000000000407290                rte_calloc
                0x0000000000407410                rte_realloc
                0x0000000000408e00                rte_malloc_validate
                0x0000000000408e50                rte_malloc_get_socket_stats
                0x0000000000408ea0                rte_malloc_dump_stats
                0x0000000000408fa0                rte_malloc_set_limit
                0x0000000000408fb0                rte_malloc_virt2phy
 *fill*         0x0000000000408ff3        0xd 
 .text          0x0000000000409000      0x5f6 /root/hpc/x86_64-native-linuxapp-gcc/lib/librte_malloc.a(malloc_elem.o)
                0x0000000000409000                malloc_elem_init
                0x0000000000409040                malloc_elem_mkend
                0x0000000000409090                malloc_elem_can_hold
                0x00000000004090c0                malloc_elem_free_list_index
                0x0000000000409100                malloc_elem_free_list_insert
                0x0000000000409170                malloc_elem_alloc
                0x00000000004092d0                malloc_elem_free
                0x0000000000409480                malloc_elem_resize
 *fill*         0x00000000004095f6        0xa 
 .text          0x0000000000409600      0x3a4 /root/hpc/x86_64-native-linuxapp-gcc/lib/librte_malloc.a(malloc_heap.o)
                0x0000000000409600                malloc_heap_alloc
                0x0000000000409920                malloc_heap_get_stats
 *fill*         0x00000000004099a4        0xc 
 .text          0x00000000004099b0     0x119e /root/hpc/x86_64-native-linuxapp-gcc/lib/librte_mempool.a(rte_mempool.o)
                0x0000000000409a50                rte_mempool_obj_iter
                0x0000000000409ba0                rte_mempool_calc_obj_size
                0x0000000000409d30                rte_mempool_xmem_size
                0x0000000000409d70                rte_mempool_xmem_usage
                0x0000000000409e90                rte_mempool_xmem_create
                0x000000000040a530                rte_mempool_create
                0x000000000040a590                rte_mempool_count
                0x000000000040a5d0                rte_mempool_audit
                0x000000000040a630                rte_mempool_dump
                0x000000000040a9d0                rte_mempool_list_dump
                0x000000000040aa40                rte_mempool_lookup
                0x000000000040aae0                rte_mempool_walk
 *fill*         0x000000000040ab4e        0x2 
 .text          0x000000000040ab50      0x84a /root/hpc/x86_64-native-linuxapp-gcc/lib/librte_ring.a(rte_ring.o)
                0x000000000040ab50                rte_ring_get_memsize
                0x000000000040aba0                rte_ring_init
                0x000000000040acc0                rte_ring_create
                0x000000000040afc0                rte_ring_set_water_mark
                0x000000000040afe0                rte_ring_dump
                0x000000000040b130                rte_ring_list_dump
                0x000000000040b300                rte_ring_lookup
 *fill*         0x000000000040b39a        0x6 
 .text          0x000000000040b3a0     0x11b8 /root/hpc/x86_64-native-linuxapp-gcc/lib/librte_eal.a(eal.o)
                0x000000000040b410                rte_eal_get_configuration
                0x000000000040b420                eal_parse_sysfs_value
                0x000000000040b550                eal_proc_type_detect
                0x000000000040b620                rte_set_application_usage_hook
                0x000000000040b630                rte_eal_iopl_init
                0x000000000040b650                rte_eal_init
                0x000000000040c450                rte_eal_lcore_role
                0x000000000040c460                rte_eal_process_type
                0x000000000040c470                rte_eal_has_hugepages
                0x000000000040c480                rte_eal_check_module
 *fill*         0x000000000040c558        0x8 
 .text          0x000000000040c560      0xc85 /root/hpc/x86_64-native-linuxapp-gcc/lib/librte_eal.a(eal_hugepage_info.o)
                0x000000000040cb20                eal_hugepage_info_init
 *fill*         0x000000000040d1e5        0xb 
 .text          0x000000000040d1f0     0x2115 /root/hpc/x86_64-native-linuxapp-gcc/lib/librte_eal.a(eal_memory.o)
                0x000000000040d860                rte_mem_lock_page
                0x000000000040d880                rte_mem_virt2phy
                0x000000000040ed70                rte_eal_memory_init
 *fill*         0x000000000040f305        0xb 
 .text          0x000000000040f310      0x3c5 /root/hpc/x86_64-native-linuxapp-gcc/lib/librte_eal.a(eal_thread.o)
                0x000000000040f310                rte_eal_remote_launch
                0x000000000040f3e0                eal_thread_init_master
                0x000000000040f450                eal_thread_loop
                0x000000000040f6c0                rte_sys_gettid
 *fill*         0x000000000040f6d5        0xb 
 .text          0x000000000040f6e0      0x1fb /root/hpc/x86_64-native-linuxapp-gcc/lib/librte_eal.a(eal_log.o)
                0x000000000040f7f0                rte_eal_log_init
                0x000000000040f870                rte_eal_log_early_init
 *fill*         0x000000000040f8db        0x5 
 .text          0x000000000040f8e0      0x147 /root/hpc/x86_64-native-linuxapp-gcc/lib/librte_eal.a(eal_debug.o)
                0x000000000040f8e0                rte_dump_stack
                0x000000000040f950                rte_dump_registers
                0x000000000040f960                rte_exit
 *fill*         0x000000000040fa27        0x9 
 .text          0x000000000040fa30      0x304 /root/hpc/x86_64-native-linuxapp-gcc/lib/librte_eal.a(eal_lcore.o)
                0x000000000040fb60                eal_cpu_socket_id
                0x000000000040fc00                rte_eal_cpu_init
 *fill*         0x000000000040fd34        0xc 
 .text          0x000000000040fd40      0x3be /root/hpc/x86_64-native-linuxapp-gcc/lib/librte_eal.a(eal_timer.o)
                0x000000000040fe40                rte_delay_us
                0x000000000040ff00                rte_get_tsc_hz
                0x000000000040ff10                rte_eal_timer_init
 *fill*         0x00000000004100fe        0x2 
 .text          0x0000000000410100      0xaf4 /root/hpc/x86_64-native-linuxapp-gcc/lib/librte_eal.a(eal_common_memzone.o)
                0x0000000000410620                rte_memzone_reserve
                0x00000000004106d0                rte_memzone_reserve_aligned
                0x0000000000410790                rte_memzone_reserve_bounded
                0x0000000000410860                rte_memzone_lookup
                0x0000000000410900                rte_memzone_dump
                0x00000000004109c0                rte_eal_memzone_init
                0x0000000000410b80                rte_memzone_walk
 *fill*         0x0000000000410bf4        0xc 
 .text          0x0000000000410c00      0xddc /root/hpc/x86_64-native-linuxapp-gcc/lib/librte_eal.a(eal_common_log.o)
                0x0000000000410c00                rte_log_add_in_history
                0x00000000004111f0                rte_log_set_history
                0x0000000000411200                rte_openlog_stream
                0x0000000000411220                rte_set_log_level
                0x0000000000411230                rte_get_log_level
                0x0000000000411240                rte_set_log_type
                0x0000000000411270                rte_get_log_type
                0x0000000000411280                rte_log_cur_msg_loglevel
                0x00000000004112b0                rte_log_cur_msg_logtype
                0x00000000004112e0                rte_log_dump_history
                0x00000000004118a0                rte_vlog
                0x0000000000411900                rte_eal_common_log_init
 *fill*         0x00000000004119dc        0x4 
 .text          0x00000000004119e0      0x2bd /root/hpc/x86_64-native-linuxapp-gcc/lib/librte_eal.a(eal_common_launch.o)
                0x00000000004119e0                rte_eal_wait_lcore
                0x0000000000411a40                rte_eal_mp_remote_launch
                0x0000000000411bb0                rte_eal_get_lcore_state
                0x0000000000411bd0                rte_eal_mp_wait_lcore
 *fill*         0x0000000000411c9d        0x3 
 .text          0x0000000000411ca0      0x118 /root/hpc/x86_64-native-linuxapp-gcc/lib/librte_eal.a(eal_common_memory.o)
                0x0000000000411ca0                rte_eal_get_physmem_layout
                0x0000000000411cc0                rte_eal_get_physmem_size
                0x0000000000411d00                rte_dump_physmem_layout
                0x0000000000411d80                rte_memory_get_nchannel
                0x0000000000411da0                rte_memory_get_nrank
 *fill*         0x0000000000411db8        0x8 
 .text          0x0000000000411dc0      0x544 /root/hpc/x86_64-native-linuxapp-gcc/lib/librte_eal.a(eal_common_tailqs.o)
                0x0000000000411dc0                rte_eal_tailq_lookup
                0x0000000000411e40                rte_dump_tailq
                0x0000000000411ed0                rte_eal_tailq_register
                0x00000000004120f0                rte_eal_tailqs_init
 *fill*         0x0000000000412304        0xc 
 .text          0x0000000000412310       0x87 /root/hpc/x86_64-native-linuxapp-gcc/lib/librte_eal.a(eal_common_errno.o)
                0x0000000000412310                rte_strerror
 .text          0x0000000000412397        0x0 /root/hpc/x86_64-native-linuxapp-gcc/lib/librte_eal.a(eal_common_cpuflags.o)
 *fill*         0x0000000000412397        0x9 
 .text          0x00000000004123a0       0x93 /root/hpc/x86_64-native-linuxapp-gcc/lib/librte_eal.a(eal_common_string_fns.o)
                0x00000000004123a0                rte_strsplit
 *fill*         0x0000000000412433        0xd 
 .text          0x0000000000412440      0x378 /root/hpc/x86_64-native-linuxapp-gcc/lib/librte_eal.a(eal_common_hexdump.o)
                0x0000000000412440                rte_hexdump
                0x0000000000412660                rte_memdump
 *fill*         0x00000000004127b8        0x8 
 .text          0x00000000004127c0      0x557 /root/hpc/x86_64-native-linuxapp-gcc/lib/librte_eal.a(eal_common_devargs.o)
                0x00000000004127c0                rte_eal_parse_devargs_str
                0x0000000000412870                rte_eal_devargs_add
                0x0000000000412be0                rte_eal_devargs_type_count
                0x0000000000412c10                rte_eal_devargs_dump
 *fill*         0x0000000000412d17        0x9 
 .text          0x0000000000412d20      0x1f9 /root/hpc/x86_64-native-linuxapp-gcc/lib/librte_eal.a(eal_common_dev.o)
                0x0000000000412d20                rte_eal_driver_register
                0x0000000000412d40                rte_eal_driver_unregister
                0x0000000000412d70                rte_eal_vdev_init
                0x0000000000412e10                rte_eal_dev_init
 *fill*         0x0000000000412f19        0x7 
 .text          0x0000000000412f20     0x1386 /root/hpc/x86_64-native-linuxapp-gcc/lib/librte_eal.a(eal_common_options.o)
                0x00000000004132d0                eal_reset_internal_config
                0x0000000000413390                eal_parse_common_option
                0x00000000004140c0                eal_adjust_config
                0x00000000004141a0                eal_check_common_options
                0x0000000000414290                eal_common_usage
 *fill*         0x00000000004142a6        0xa 
 .text          0x00000000004142b0      0x354 /root/hpc/x86_64-native-linuxapp-gcc/lib/librte_eal.a(eal_common_thread.o)
                0x00000000004142b0                rte_socket_id
                0x00000000004142c0                eal_cpuset_socket_id
                0x0000000000414350                rte_thread_set_affinity
                0x0000000000414480                rte_thread_get_affinity
                0x00000000004144c0                eal_thread_dump_affinity
 *fill*         0x0000000000414604        0xc 
 .text          0x0000000000414610      0x621 /root/hpc/x86_64-native-linuxapp-gcc/lib/librte_cmdline.a(cmdline.o)
                0x0000000000414610                cmdline_write_char
                0x0000000000414750                cmdline_set_prompt
                0x0000000000414780                cmdline_new
                0x0000000000414840                cmdline_free
                0x00000000004148a0                cmdline_printf
                0x00000000004149c0                cmdline_in
                0x0000000000414b10                cmdline_quit
                0x0000000000414b30                cmdline_poll
                0x0000000000414bf0                cmdline_interact
 *fill*         0x0000000000414c31        0xf 
 .text          0x0000000000414c40      0x86c /root/hpc/x86_64-native-linuxapp-gcc/lib/librte_cmdline.a(cmdline_cirbuf.o)
                0x0000000000414c40                cirbuf_init
                0x0000000000414c70                cirbuf_add_buf_head
                0x0000000000414d40                cirbuf_add_buf_tail
                0x0000000000414e20                cirbuf_add_head_safe
                0x0000000000414e70                cirbuf_add_head
                0x0000000000414ec0                cirbuf_add_tail_safe
                0x0000000000414f10                cirbuf_add_tail
                0x0000000000414f50                cirbuf_align_left
                0x00000000004150a0                cirbuf_align_right
                0x00000000004151f0                cirbuf_del_buf_head
                0x0000000000415240                cirbuf_del_buf_tail
                0x0000000000415290                cirbuf_del_head_safe
                0x00000000004152d0                cirbuf_del_head
                0x00000000004152f0                cirbuf_del_tail_safe
                0x0000000000415330                cirbuf_del_tail
                0x0000000000415360                cirbuf_get_buf_head
                0x00000000004153f0                cirbuf_get_buf_tail
                0x0000000000415490                cirbuf_get_head
                0x00000000004154a0                cirbuf_get_tail
 *fill*         0x00000000004154ac        0x4 
 .text          0x00000000004154b0      0xc5d /root/hpc/x86_64-native-linuxapp-gcc/lib/librte_cmdline.a(cmdline_parse.o)
                0x00000000004155d0                cmdline_isendoftoken
                0x0000000000415600                cmdline_parse
                0x00000000004159c0                cmdline_complete
 *fill*         0x000000000041610d        0x3 
 .text          0x0000000000416110      0x290 /root/hpc/x86_64-native-linuxapp-gcc/lib/librte_cmdline.a(cmdline_parse_etheraddr.o)
                0x0000000000416110                cmdline_get_help_etheraddr
                0x0000000000416130                cmdline_parse_etheraddr
 .text          0x00000000004163a0      0x678 /root/hpc/x86_64-native-linuxapp-gcc/lib/librte_cmdline.a(cmdline_parse_ipaddr.o)
                0x00000000004163a0                cmdline_get_help_ipaddr
                0x0000000000416830                cmdline_parse_ipaddr
 *fill*         0x0000000000416a18        0x8 
 .text          0x0000000000416a20      0x5c5 /root/hpc/x86_64-native-linuxapp-gcc/lib/librte_cmdline.a(cmdline_parse_num.o)
                0x0000000000416a20                cmdline_get_help_num
                0x0000000000416a80                cmdline_parse_num
 *fill*         0x0000000000416fe5        0xb 
 .text          0x0000000000416ff0      0x3dc /root/hpc/x86_64-native-linuxapp-gcc/lib/librte_cmdline.a(cmdline_parse_string.o)
                0x0000000000416ff0                cmdline_parse_string
                0x0000000000417180                cmdline_complete_get_nb_string
                0x0000000000417200                cmdline_complete_get_elt_string
                0x0000000000417300                cmdline_get_help_string
 *fill*         0x00000000004173cc        0x4 
 .text          0x00000000004173d0     0x1652 /root/hpc/x86_64-native-linuxapp-gcc/lib/librte_cmdline.a(cmdline_rdline.o)
                0x0000000000417560                rdline_init
                0x00000000004175e0                rdline_newline
                0x00000000004176b0                rdline_stop
                0x00000000004176c0                rdline_quit
                0x00000000004176d0                rdline_restart
                0x00000000004176e0                rdline_reset
                0x0000000000417740                rdline_get_buffer
                0x00000000004177b0                rdline_redisplay
                0x0000000000417870                rdline_char_in
                0x0000000000418800                rdline_get_history_item
                0x00000000004188f0                rdline_add_history
                0x0000000000418a00                rdline_clear_history
 *fill*         0x0000000000418a22        0xe 
 .text          0x0000000000418a30      0x158 /root/hpc/x86_64-native-linuxapp-gcc/lib/librte_cmdline.a(cmdline_vt100.o)
                0x0000000000418a30                vt100_init
                0x0000000000418a40                vt100_parser
 *fill*         0x0000000000418b88        0x8 
 .text          0x0000000000418b90      0x1b2 /root/hpc/x86_64-native-linuxapp-gcc/lib/librte_cmdline.a(cmdline_socket.o)
                0x0000000000418b90                cmdline_file_new
                0x0000000000418be0                cmdline_stdin_new
                0x0000000000418d10                cmdline_stdin_exit
 *fill*         0x0000000000418d42        0xe 
 .text          0x0000000000418d50      0x277 /root/hpc/x86_64-native-linuxapp-gcc/lib/librte_cmdline.a(cmdline_parse_portlist.o)
                0x0000000000418d50                cmdline_get_help_portlist
                0x0000000000418d70                cmdline_parse_portlist
 *fill*         0x0000000000418fc7        0x9 
 .text          0x0000000000418fd0      0xc75 /root/hpc/x86_64-native-linuxapp-gcc/lib/librte_cfgfile.a(rte_cfgfile.o)
                0x00000000004192f0                rte_cfgfile_load
                0x0000000000419760                rte_cfgfile_close
                0x0000000000419800                rte_cfgfile_num_sections
                0x0000000000419860                rte_cfgfile_sections
                0x00000000004198d0                rte_cfgfile_has_section
                0x0000000000419940                rte_cfgfile_section_num_entries
                0x00000000004199b0                rte_cfgfile_section_entries
                0x0000000000419ae0                rte_cfgfile_get_entry
                0x0000000000419b90                rte_cfgfile_has_entry
 *fill*         0x0000000000419c45        0xb 
 .text          0x0000000000419c50       0x72 /usr/lib/x86_64-linux-gnu/libc_nonshared.a(elf-init.oS)
                0x0000000000419c50                __libc_csu_init
                0x0000000000419cc0                __libc_csu_fini
 .text          0x0000000000419cc2        0x0 /usr/lib/gcc/x86_64-linux-gnu/4.8/crtend.o
 .text          0x0000000000419cc2        0x0 /usr/lib/gcc/x86_64-linux-gnu/4.8/../../../x86_64-linux-gnu/crtn.o
 *(.gnu.warning)

.fini           0x0000000000419cc4        0x9
 *(SORT(.fini))
 .fini          0x0000000000419cc4        0x4 /usr/lib/gcc/x86_64-linux-gnu/4.8/../../../x86_64-linux-gnu/crti.o
                0x0000000000419cc4                _fini
 .fini          0x0000000000419cc8        0x5 /usr/lib/gcc/x86_64-linux-gnu/4.8/../../../x86_64-linux-gnu/crtn.o
                0x0000000000419ccd                PROVIDE (__etext, .)
                0x0000000000419ccd                PROVIDE (_etext, .)
                0x0000000000419ccd                PROVIDE (etext, .)

.rodata         0x0000000000419ce0     0x5700
 *(.rodata .rodata.* .gnu.linkonce.r.*)
 .rodata.cst4   0x0000000000419ce0        0x4 /usr/lib/gcc/x86_64-linux-gnu/4.8/../../../x86_64-linux-gnu/crt1.o
                0x0000000000419ce0                _IO_stdin_used
 .rodata.str1.1
                0x0000000000419ce4       0x25 main.o
 *fill*         0x0000000000419d09        0x7 
 .rodata.str1.8
                0x0000000000419d10       0x24 main.o
 .rodata        0x0000000000419d34        0x5 main.o
 *fill*         0x0000000000419d39        0x7 
 .rodata.str1.8
                0x0000000000419d40      0x1d0 commands.o
 .rodata.str1.1
                0x0000000000419f10       0xbd commands.o
                                         0xc5 (size before relaxing)
 .rodata.str1.1
                0x0000000000419fcd        0x9 parse_obj_list.o
                                          0xc (size before relaxing)
 .rodata.str1.1
                0x0000000000419fd6      0x22a /root/hpc/x86_64-native-linuxapp-gcc/lib/librte_mbuf.a(rte_mbuf.o)
                                        0x230 (size before relaxing)
 .rodata.str1.8
                0x000000000041a200       0x93 /root/hpc/x86_64-native-linuxapp-gcc/lib/librte_mbuf.a(rte_mbuf.o)
 *fill*         0x000000000041a293        0xd 
 .rodata        0x000000000041a2a0       0x16 /root/hpc/x86_64-native-linuxapp-gcc/lib/librte_mbuf.a(rte_mbuf.o)
 .rodata.str1.1
                0x000000000041a2b6       0x7c /root/hpc/x86_64-native-linuxapp-gcc/lib/librte_malloc.a(rte_malloc.o)
                                         0x82 (size before relaxing)
 *fill*         0x000000000041a332        0x6 
 .rodata.str1.8
                0x000000000041a338       0x55 /root/hpc/x86_64-native-linuxapp-gcc/lib/librte_malloc.a(rte_malloc.o)
 *fill*         0x000000000041a38d        0x3 
 .rodata        0x000000000041a390       0x95 /root/hpc/x86_64-native-linuxapp-gcc/lib/librte_malloc.a(rte_malloc.o)
 .rodata.str1.1
                0x000000000041a425       0x17 /root/hpc/x86_64-native-linuxapp-gcc/lib/librte_malloc.a(malloc_heap.o)
 .rodata.str1.1
                0x000000000041a43c      0x1ce /root/hpc/x86_64-native-linuxapp-gcc/lib/librte_mempool.a(rte_mempool.o)
                                        0x1d7 (size before relaxing)
 *fill*         0x000000000041a60a        0x6 
 .rodata.str1.8
                0x000000000041a610      0x138 /root/hpc/x86_64-native-linuxapp-gcc/lib/librte_mempool.a(rte_mempool.o)
 *fill*         0x000000000041a748        0x8 
 .rodata        0x000000000041a750       0x5e /root/hpc/x86_64-native-linuxapp-gcc/lib/librte_mempool.a(rte_mempool.o)
 *fill*         0x000000000041a7ae        0x2 
 .rodata.cst8   0x000000000041a7b0        0x8 /root/hpc/x86_64-native-linuxapp-gcc/lib/librte_mempool.a(rte_mempool.o)
 .rodata.cst4   0x000000000041a7b8        0x4 /root/hpc/x86_64-native-linuxapp-gcc/lib/librte_mempool.a(rte_mempool.o)
 .rodata.str1.1
                0x000000000041a7bc       0x9f /root/hpc/x86_64-native-linuxapp-gcc/lib/librte_ring.a(rte_ring.o)
                                         0xda (size before relaxing)
 *fill*         0x000000000041a85b        0x5 
 .rodata.str1.8
                0x000000000041a860       0x87 /root/hpc/x86_64-native-linuxapp-gcc/lib/librte_ring.a(rte_ring.o)
                                         0xaf (size before relaxing)
 *fill*         0x000000000041a8e7        0x9 
 .rodata        0x000000000041a8f0       0x1b /root/hpc/x86_64-native-linuxapp-gcc/lib/librte_ring.a(rte_ring.o)
 .rodata.str1.1
                0x000000000041a90b      0x15e /root/hpc/x86_64-native-linuxapp-gcc/lib/librte_eal.a(eal.o)
                                        0x167 (size before relaxing)
 *fill*         0x000000000041aa69        0x7 
 .rodata.str1.8
                0x000000000041aa70      0x4df /root/hpc/x86_64-native-linuxapp-gcc/lib/librte_eal.a(eal.o)
 *fill*         0x000000000041af4f        0x1 
 .rodata        0x000000000041af50       0x96 /root/hpc/x86_64-native-linuxapp-gcc/lib/librte_eal.a(eal.o)
 .rodata.str1.1
                0x000000000041afe6       0x5f /root/hpc/x86_64-native-linuxapp-gcc/lib/librte_eal.a(eal_hugepage_info.o)
                                         0x67 (size before relaxing)
 *fill*         0x000000000041b045        0x3 
 .rodata.str1.8
                0x000000000041b048      0x1ac /root/hpc/x86_64-native-linuxapp-gcc/lib/librte_eal.a(eal_hugepage_info.o)
 *fill*         0x000000000041b1f4        0xc 
 .rodata        0x000000000041b200       0x79 /root/hpc/x86_64-native-linuxapp-gcc/lib/librte_eal.a(eal_hugepage_info.o)
 *fill*         0x000000000041b279        0x7 
 .rodata.str1.8
                0x000000000041b280      0x687 /root/hpc/x86_64-native-linuxapp-gcc/lib/librte_eal.a(eal_memory.o)
 .rodata.str1.1
                0x000000000041b907      0x147 /root/hpc/x86_64-native-linuxapp-gcc/lib/librte_eal.a(eal_memory.o)
                                        0x15d (size before relaxing)
 *fill*         0x000000000041ba4e        0x2 
 .rodata        0x000000000041ba50       0xa1 /root/hpc/x86_64-native-linuxapp-gcc/lib/librte_eal.a(eal_memory.o)
 .rodata.str1.1
                0x000000000041baf1       0x52 /root/hpc/x86_64-native-linuxapp-gcc/lib/librte_eal.a(eal_thread.o)
                                         0x5d (size before relaxing)
 *fill*         0x000000000041bb43        0x5 
 .rodata.str1.8
                0x000000000041bb48       0x7f /root/hpc/x86_64-native-linuxapp-gcc/lib/librte_eal.a(eal_thread.o)
 *fill*         0x000000000041bbc7        0x9 
 .rodata        0x000000000041bbd0       0x46 /root/hpc/x86_64-native-linuxapp-gcc/lib/librte_eal.a(eal_thread.o)
 .rodata.str1.1
                0x000000000041bc16        0x3 /root/hpc/x86_64-native-linuxapp-gcc/lib/librte_eal.a(eal_log.o)
                                          0x6 (size before relaxing)
 *fill*         0x000000000041bc19        0x7 
 .rodata.str1.8
                0x000000000041bc20       0x22 /root/hpc/x86_64-native-linuxapp-gcc/lib/librte_eal.a(eal_log.o)
 *fill*         0x000000000041bc42       0x1e 
 .rodata        0x000000000041bc60       0x40 /root/hpc/x86_64-native-linuxapp-gcc/lib/librte_eal.a(eal_log.o)
 .rodata.str1.1
                0x000000000041bca0       0x1a /root/hpc/x86_64-native-linuxapp-gcc/lib/librte_eal.a(eal_debug.o)
 *fill*         0x000000000041bcba        0x6 
 .rodata.str1.8
                0x000000000041bcc0       0x2d /root/hpc/x86_64-native-linuxapp-gcc/lib/librte_eal.a(eal_debug.o)
 *fill*         0x000000000041bced        0x3 
 .rodata.str1.8
                0x000000000041bcf0      0x153 /root/hpc/x86_64-native-linuxapp-gcc/lib/librte_eal.a(eal_lcore.o)
 .rodata.str1.1
                0x000000000041be43       0x73 /root/hpc/x86_64-native-linuxapp-gcc/lib/librte_eal.a(eal_lcore.o)
                                         0x79 (size before relaxing)
 *fill*         0x000000000041beb6        0xa 
 .rodata        0x000000000041bec0       0x11 /root/hpc/x86_64-native-linuxapp-gcc/lib/librte_eal.a(eal_lcore.o)
 .rodata.str1.1
                0x000000000041bed1       0x34 /root/hpc/x86_64-native-linuxapp-gcc/lib/librte_eal.a(eal_timer.o)
                                         0x3c (size before relaxing)
 *fill*         0x000000000041bf05        0x3 
 .rodata.str1.8
                0x000000000041bf08      0x154 /root/hpc/x86_64-native-linuxapp-gcc/lib/librte_eal.a(eal_timer.o)
 *fill*         0x000000000041c05c        0x4 
 .rodata        0x000000000041c060       0x31 /root/hpc/x86_64-native-linuxapp-gcc/lib/librte_eal.a(eal_timer.o)
 *fill*         0x000000000041c091        0x7 
 .rodata.cst8   0x000000000041c098       0x18 /root/hpc/x86_64-native-linuxapp-gcc/lib/librte_eal.a(eal_timer.o)
 .rodata.str1.8
                0x000000000041c0b0      0x110 /root/hpc/x86_64-native-linuxapp-gcc/lib/librte_eal.a(eal_common_memzone.o)
 .rodata.str1.1
                0x0000000000000000        0x3 /root/hpc/x86_64-native-linuxapp-gcc/lib/librte_eal.a(eal_common_memzone.o)
 .rodata        0x000000000041c1c0       0x46 /root/hpc/x86_64-native-linuxapp-gcc/lib/librte_eal.a(eal_common_memzone.o)
 .rodata.str1.1
                0x000000000041c206        0xc /root/hpc/x86_64-native-linuxapp-gcc/lib/librte_eal.a(eal_common_log.o)
 *fill*         0x000000000041c212        0x6 
 .rodata.str1.8
                0x000000000041c218       0x2e /root/hpc/x86_64-native-linuxapp-gcc/lib/librte_eal.a(eal_common_log.o)
 *fill*         0x000000000041c246        0xa 
 .rodata        0x000000000041c250       0x18 /root/hpc/x86_64-native-linuxapp-gcc/lib/librte_eal.a(eal_common_log.o)
 .rodata.str1.8
                0x000000000041c268       0x60 /root/hpc/x86_64-native-linuxapp-gcc/lib/librte_eal.a(eal_common_memory.o)
 .rodata.str1.8
                0x000000000041c2c8       0x58 /root/hpc/x86_64-native-linuxapp-gcc/lib/librte_eal.a(eal_common_tailqs.o)
 .rodata.str1.1
                0x000000000041c320       0x1d /root/hpc/x86_64-native-linuxapp-gcc/lib/librte_eal.a(eal_common_tailqs.o)
                                         0x20 (size before relaxing)
 *fill*         0x000000000041c33d        0x3 
 .rodata.str1.8
                0x000000000041c340       0x22 /root/hpc/x86_64-native-linuxapp-gcc/lib/librte_eal.a(eal_common_errno.o)
 .rodata.str1.1
                0x000000000041c362       0x2e /root/hpc/x86_64-native-linuxapp-gcc/lib/librte_eal.a(eal_common_errno.o)
 .rodata.str1.8
                0x000000000041c390       0x95 /root/hpc/x86_64-native-linuxapp-gcc/lib/librte_eal.a(eal_common_cpuflags.o)
 *fill*         0x000000000041c425       0x1b 
 .rodata        0x000000000041c440     0x1a80 /root/hpc/x86_64-native-linuxapp-gcc/lib/librte_eal.a(eal_common_cpuflags.o)
 .rodata.str1.1
                0x000000000041dec0       0x3f /root/hpc/x86_64-native-linuxapp-gcc/lib/librte_eal.a(eal_common_hexdump.o)
                                         0x46 (size before relaxing)
 *fill*         0x000000000041deff        0x1 
 .rodata.str1.8
                0x000000000041df00       0xd6 /root/hpc/x86_64-native-linuxapp-gcc/lib/librte_eal.a(eal_common_devargs.o)
 .rodata.str1.1
                0x000000000041dfd6       0x56 /root/hpc/x86_64-native-linuxapp-gcc/lib/librte_eal.a(eal_common_devargs.o)
                                         0x59 (size before relaxing)
 .rodata.str1.1
                0x000000000041e02c       0x1d /root/hpc/x86_64-native-linuxapp-gcc/lib/librte_eal.a(eal_common_dev.o)
 *fill*         0x000000000041e049        0x7 
 .rodata.str1.8
                0x000000000041e050       0x25 /root/hpc/x86_64-native-linuxapp-gcc/lib/librte_eal.a(eal_common_dev.o)
 .rodata.str1.1
                0x000000000041e075      0x1cc /root/hpc/x86_64-native-linuxapp-gcc/lib/librte_eal.a(eal_common_options.o)
                                        0x1d1 (size before relaxing)
 *fill*         0x000000000041e241        0x7 
 .rodata.str1.8
                0x000000000041e248      0x8ce /root/hpc/x86_64-native-linuxapp-gcc/lib/librte_eal.a(eal_common_options.o)
 *fill*         0x000000000041eb16        0xa 
 .rodata        0x000000000041eb20      0x32d /root/hpc/x86_64-native-linuxapp-gcc/lib/librte_eal.a(eal_common_options.o)
                0x000000000041ec60                eal_long_options
                0x000000000041ee40                eal_short_options
 *fill*         0x000000000041ee4d        0x3 
 .rodata.str1.8
                0x000000000041ee50       0x5c /root/hpc/x86_64-native-linuxapp-gcc/lib/librte_eal.a(eal_common_thread.o)
 .rodata.str1.1
                0x000000000041eeac        0xc /root/hpc/x86_64-native-linuxapp-gcc/lib/librte_eal.a(eal_common_thread.o)
 *fill*         0x000000000041eeb8        0x8 
 .rodata        0x000000000041eec0       0x18 /root/hpc/x86_64-native-linuxapp-gcc/lib/librte_eal.a(eal_common_thread.o)
 .rodata.str1.1
                0x000000000041eed8       0x35 /root/hpc/x86_64-native-linuxapp-gcc/lib/librte_cmdline.a(cmdline.o)
                                         0x38 (size before relaxing)
 *fill*         0x000000000041ef0d        0x3 
 .rodata.str1.8
                0x000000000041ef10       0x6f /root/hpc/x86_64-native-linuxapp-gcc/lib/librte_cmdline.a(cmdline_parse.o)
 .rodata.str1.1
                0x000000000041ef7f       0x20 /root/hpc/x86_64-native-linuxapp-gcc/lib/librte_cmdline.a(cmdline_parse.o)
                                         0x23 (size before relaxing)
 .rodata.str1.1
                0x000000000041ef9f       0x11 /root/hpc/x86_64-native-linuxapp-gcc/lib/librte_cmdline.a(cmdline_parse_etheraddr.o)
                                         0x14 (size before relaxing)
 .rodata.str1.1
                0x000000000041efb0       0x41 /root/hpc/x86_64-native-linuxapp-gcc/lib/librte_cmdline.a(cmdline_parse_ipaddr.o)
                                         0x56 (size before relaxing)
 *fill*         0x000000000041eff1        0xf 
 .rodata        0x000000000041f000       0x7c /root/hpc/x86_64-native-linuxapp-gcc/lib/librte_cmdline.a(cmdline_parse_ipaddr.o)
 .rodata.str1.1
                0x000000000041f07c       0x1b /root/hpc/x86_64-native-linuxapp-gcc/lib/librte_cmdline.a(cmdline_parse_num.o)
                                         0x35 (size before relaxing)
 *fill*         0x000000000041f097        0x9 
 .rodata        0x000000000041f0a0       0xe0 /root/hpc/x86_64-native-linuxapp-gcc/lib/librte_cmdline.a(cmdline_parse_num.o)
 .rodata.str1.1
                0x000000000041f180       0x2a /root/hpc/x86_64-native-linuxapp-gcc/lib/librte_cmdline.a(cmdline_parse_string.o)
                                         0x2d (size before relaxing)
 .rodata.str1.1
                0x000000000041f1aa       0x21 /root/hpc/x86_64-native-linuxapp-gcc/lib/librte_cmdline.a(cmdline_rdline.o)
 *fill*         0x000000000041f1cb        0x5 
 .rodata        0x000000000041f1d0       0xd0 /root/hpc/x86_64-native-linuxapp-gcc/lib/librte_cmdline.a(cmdline_rdline.o)
 .rodata.str1.1
                0x000000000041f2a0       0x37 /root/hpc/x86_64-native-linuxapp-gcc/lib/librte_cmdline.a(cmdline_vt100.o)
                                         0x43 (size before relaxing)
 *fill*         0x000000000041f2d7        0x1 
 .rodata.str1.8
                0x000000000041f2d8       0x20 /root/hpc/x86_64-native-linuxapp-gcc/lib/librte_cmdline.a(cmdline_parse_portlist.o)
 .rodata.str1.1
                0x0000000000000000        0x3 /root/hpc/x86_64-native-linuxapp-gcc/lib/librte_cmdline.a(cmdline_parse_portlist.o)
 .rodata.str1.1
                0x000000000041f2f8       0x17 /root/hpc/x86_64-native-linuxapp-gcc/lib/librte_cfgfile.a(rte_cfgfile.o)
                                         0x1c (size before relaxing)
 *fill*         0x000000000041f30f        0x1 
 .rodata.str1.8
                0x000000000041f310       0xd0 /root/hpc/x86_64-native-linuxapp-gcc/lib/librte_cfgfile.a(rte_cfgfile.o)

.rodata1
 *(.rodata1)

.eh_frame_hdr   0x000000000041f3e0      0x80c
 *(.eh_frame_hdr)
 .eh_frame_hdr  0x000000000041f3e0      0x80c /usr/lib/gcc/x86_64-linux-gnu/4.8/../../../x86_64-linux-gnu/crt1.o

.eh_frame       0x000000000041fbf0     0x30a4
 *(.eh_frame)
 .eh_frame      0x000000000041fbf0       0x30 /usr/lib/gcc/x86_64-linux-gnu/4.8/../../../x86_64-linux-gnu/crt1.o
 .eh_frame      0x000000000041fc20       0x40 /usr/lib/gcc/x86_64-linux-gnu/4.8/../../../x86_64-linux-gnu/crt1.o
 .eh_frame      0x000000000041fc60       0x20 main.o
                                         0x38 (size before relaxing)
 .eh_frame      0x000000000041fc80       0x90 commands.o
                                         0xa8 (size before relaxing)
 .eh_frame      0x000000000041fd10       0xe0 parse_obj_list.o
                                         0xf0 (size before relaxing)
 .eh_frame      0x000000000041fdf0      0x140 /root/hpc/x86_64-native-linuxapp-gcc/lib/librte_mbuf.a(rte_mbuf.o)
 .eh_frame      0x000000000041ff30      0x330 /root/hpc/x86_64-native-linuxapp-gcc/lib/librte_malloc.a(rte_malloc.o)
                                        0x318 (size before relaxing)
 .eh_frame      0x0000000000420260       0xe0 /root/hpc/x86_64-native-linuxapp-gcc/lib/librte_malloc.a(malloc_elem.o)
                                         0xd8 (size before relaxing)
 .eh_frame      0x0000000000420340       0x88 /root/hpc/x86_64-native-linuxapp-gcc/lib/librte_malloc.a(malloc_heap.o)
                                         0x98 (size before relaxing)
 .eh_frame      0x00000000004203c8      0x330 /root/hpc/x86_64-native-linuxapp-gcc/lib/librte_mempool.a(rte_mempool.o)
                                        0x320 (size before relaxing)
 .eh_frame      0x00000000004206f8      0x188 /root/hpc/x86_64-native-linuxapp-gcc/lib/librte_ring.a(rte_ring.o)
 .eh_frame      0x0000000000420880      0x1c8 /root/hpc/x86_64-native-linuxapp-gcc/lib/librte_eal.a(eal.o)
                                        0x1b8 (size before relaxing)
 .eh_frame      0x0000000000420a48       0xc0 /root/hpc/x86_64-native-linuxapp-gcc/lib/librte_eal.a(eal_hugepage_info.o)
                                         0xd8 (size before relaxing)
 .eh_frame      0x0000000000420b08      0x238 /root/hpc/x86_64-native-linuxapp-gcc/lib/librte_eal.a(eal_memory.o)
                                        0x240 (size before relaxing)
 .eh_frame      0x0000000000420d40       0x98 /root/hpc/x86_64-native-linuxapp-gcc/lib/librte_eal.a(eal_thread.o)
                                         0xa8 (size before relaxing)
 .eh_frame      0x0000000000420dd8       0xd8 /root/hpc/x86_64-native-linuxapp-gcc/lib/librte_eal.a(eal_log.o)
                                         0xe0 (size before relaxing)
 .eh_frame      0x0000000000420eb0       0x90 /root/hpc/x86_64-native-linuxapp-gcc/lib/librte_eal.a(eal_debug.o)
                                         0xa0 (size before relaxing)
 .eh_frame      0x0000000000420f40       0xb8 /root/hpc/x86_64-native-linuxapp-gcc/lib/librte_eal.a(eal_lcore.o)
                                         0xc8 (size before relaxing)
 .eh_frame      0x0000000000420ff8       0x98 /root/hpc/x86_64-native-linuxapp-gcc/lib/librte_eal.a(eal_timer.o)
                                         0xa0 (size before relaxing)
 .eh_frame      0x0000000000421090      0x270 /root/hpc/x86_64-native-linuxapp-gcc/lib/librte_eal.a(eal_common_memzone.o)
                                        0x278 (size before relaxing)
 .eh_frame      0x0000000000421300      0x208 /root/hpc/x86_64-native-linuxapp-gcc/lib/librte_eal.a(eal_common_log.o)
                                        0x1f0 (size before relaxing)
 .eh_frame      0x0000000000421508       0xb0 /root/hpc/x86_64-native-linuxapp-gcc/lib/librte_eal.a(eal_common_launch.o)
                                         0xc0 (size before relaxing)
 .eh_frame      0x00000000004215b8       0xb0 /root/hpc/x86_64-native-linuxapp-gcc/lib/librte_eal.a(eal_common_memory.o)
                                         0xc8 (size before relaxing)
 .eh_frame      0x0000000000421668      0x138 /root/hpc/x86_64-native-linuxapp-gcc/lib/librte_eal.a(eal_common_tailqs.o)
                                        0x140 (size before relaxing)
 .eh_frame      0x00000000004217a0       0x28 /root/hpc/x86_64-native-linuxapp-gcc/lib/librte_eal.a(eal_common_errno.o)
                                         0x40 (size before relaxing)
 .eh_frame      0x00000000004217c8       0x28 /root/hpc/x86_64-native-linuxapp-gcc/lib/librte_eal.a(eal_common_cpuflags.o)
                                         0x40 (size before relaxing)
 .eh_frame      0x00000000004217f0       0x20 /root/hpc/x86_64-native-linuxapp-gcc/lib/librte_eal.a(eal_common_string_fns.o)
                                         0x38 (size before relaxing)
 .eh_frame      0x0000000000421810       0xa0 /root/hpc/x86_64-native-linuxapp-gcc/lib/librte_eal.a(eal_common_hexdump.o)
                                         0xb8 (size before relaxing)
 .eh_frame      0x00000000004218b0       0xd0 /root/hpc/x86_64-native-linuxapp-gcc/lib/librte_eal.a(eal_common_devargs.o)
                                         0xd8 (size before relaxing)
 .eh_frame      0x0000000000421980       0xc0 /root/hpc/x86_64-native-linuxapp-gcc/lib/librte_eal.a(eal_common_dev.o)
                                         0xd0 (size before relaxing)
 .eh_frame      0x0000000000421a40      0x140 /root/hpc/x86_64-native-linuxapp-gcc/lib/librte_eal.a(eal_common_options.o)
                                        0x150 (size before relaxing)
 .eh_frame      0x0000000000421b80      0x108 /root/hpc/x86_64-native-linuxapp-gcc/lib/librte_eal.a(eal_common_thread.o)
                                        0x110 (size before relaxing)
 .eh_frame      0x0000000000421c88      0x230 /root/hpc/x86_64-native-linuxapp-gcc/lib/librte_cmdline.a(cmdline.o)
                                        0x228 (size before relaxing)
 .eh_frame      0x0000000000421eb8      0x268 /root/hpc/x86_64-native-linuxapp-gcc/lib/librte_cmdline.a(cmdline_cirbuf.o)
                                        0x238 (size before relaxing)
 .eh_frame      0x0000000000422120      0x108 /root/hpc/x86_64-native-linuxapp-gcc/lib/librte_cmdline.a(cmdline_parse.o)
                                        0x118 (size before relaxing)
 .eh_frame      0x0000000000422228       0x68 /root/hpc/x86_64-native-linuxapp-gcc/lib/librte_cmdline.a(cmdline_parse_etheraddr.o)
                                         0x80 (size before relaxing)
 .eh_frame      0x0000000000422290      0x130 /root/hpc/x86_64-native-linuxapp-gcc/lib/librte_cmdline.a(cmdline_parse_ipaddr.o)
                                        0x140 (size before relaxing)
 .eh_frame      0x00000000004223c0       0x98 /root/hpc/x86_64-native-linuxapp-gcc/lib/librte_cmdline.a(cmdline_parse_num.o)
                                         0xb0 (size before relaxing)
 .eh_frame      0x0000000000422458       0xd0 /root/hpc/x86_64-native-linuxapp-gcc/lib/librte_cmdline.a(cmdline_parse_string.o)
                                         0xe0 (size before relaxing)
 .eh_frame      0x0000000000422528      0x298 /root/hpc/x86_64-native-linuxapp-gcc/lib/librte_cmdline.a(cmdline_rdline.o)
                                        0x290 (size before relaxing)
 .eh_frame      0x00000000004227c0       0x98 /root/hpc/x86_64-native-linuxapp-gcc/lib/librte_cmdline.a(cmdline_vt100.o)
                                         0xb0 (size before relaxing)
 .eh_frame      0x0000000000422858       0x88 /root/hpc/x86_64-native-linuxapp-gcc/lib/librte_cmdline.a(cmdline_socket.o)
                                         0xa0 (size before relaxing)
 .eh_frame      0x00000000004228e0       0x68 /root/hpc/x86_64-native-linuxapp-gcc/lib/librte_cmdline.a(cmdline_parse_portlist.o)
                                         0x80 (size before relaxing)
 .eh_frame      0x0000000000422948      0x2e8 /root/hpc/x86_64-native-linuxapp-gcc/lib/librte_cfgfile.a(rte_cfgfile.o)
                                        0x2f0 (size before relaxing)
 .eh_frame      0x0000000000422c30       0x60 /usr/lib/x86_64-linux-gnu/libc_nonshared.a(elf-init.oS)
                                         0x78 (size before relaxing)
 .eh_frame      0x0000000000422c90        0x4 /usr/lib/gcc/x86_64-linux-gnu/4.8/crtend.o

.gcc_except_table
 *(.gcc_except_table .gcc_except_table.*)

.exception_ranges
 *(.exception_ranges .exception_ranges*)
                0x0000000000422c94                . = (ALIGN (0x200000) - ((0x200000 - .) & 0x1fffff))
                0x0000000000622d14                . = DATA_SEGMENT_ALIGN (0x200000, 0x1000)

.eh_frame
 *(.eh_frame)

.gcc_except_table
 *(.gcc_except_table .gcc_except_table.*)

.exception_ranges
 *(.exception_ranges .exception_ranges*)

.tdata          0x0000000000622d20       0x14
 *(.tdata .tdata.* .gnu.linkonce.td.*)
 .tdata         0x0000000000622d20       0x14 /root/hpc/x86_64-native-linuxapp-gcc/lib/librte_eal.a(eal_thread.o)
                0x0000000000622d24                per_lcore__socket_id
                0x0000000000622d30                per_lcore__lcore_id

.tbss           0x0000000000622d38      0x184
 *(.tbss .tbss.* .gnu.linkonce.tb.*)
 .tbss          0x0000000000622d38       0x80 /root/hpc/x86_64-native-linuxapp-gcc/lib/librte_eal.a(eal_thread.o)
                0x0000000000622d38                per_lcore__cpuset
 .tbss          0x0000000000622db8      0x104 /root/hpc/x86_64-native-linuxapp-gcc/lib/librte_eal.a(eal_common_errno.o)
                0x0000000000622eb8                per_lcore__rte_errno
 *(.tcommon)

.preinit_array  0x0000000000622d38        0x0
                0x0000000000622d38                PROVIDE (__preinit_array_start, .)
 *(.preinit_array)
                0x0000000000622d38                PROVIDE (__preinit_array_end, .)

.init_array     0x0000000000622d38       0x80
                0x0000000000622d38                PROVIDE (__init_array_start, .)
 *(SORT(.init_array.*) SORT(.ctors.*))
 *(.init_array EXCLUDE_FILE(*crtend?.o *crtend.o *crtbegin?.o *crtbegin.o) .ctors)
 .init_array    0x0000000000622d38        0x8 /usr/lib/gcc/x86_64-linux-gnu/4.8/crtbegin.o
 .init_array    0x0000000000622d40        0x8 /root/hpc/x86_64-native-linuxapp-gcc/lib/librte_malloc.a(rte_malloc.o)
 .init_array    0x0000000000622d48        0x8 /root/hpc/x86_64-native-linuxapp-gcc/lib/librte_malloc.a(malloc_elem.o)
 .init_array    0x0000000000622d50        0x8 /root/hpc/x86_64-native-linuxapp-gcc/lib/librte_malloc.a(malloc_heap.o)
 .init_array    0x0000000000622d58       0x10 /root/hpc/x86_64-native-linuxapp-gcc/lib/librte_mempool.a(rte_mempool.o)
 .init_array    0x0000000000622d68       0x10 /root/hpc/x86_64-native-linuxapp-gcc/lib/librte_ring.a(rte_ring.o)
 .init_array    0x0000000000622d78        0x8 /root/hpc/x86_64-native-linuxapp-gcc/lib/librte_eal.a(eal.o)
 .init_array    0x0000000000622d80        0x8 /root/hpc/x86_64-native-linuxapp-gcc/lib/librte_eal.a(eal_memory.o)
 .init_array    0x0000000000622d88        0x8 /root/hpc/x86_64-native-linuxapp-gcc/lib/librte_eal.a(eal_log.o)
 .init_array    0x0000000000622d90        0x8 /root/hpc/x86_64-native-linuxapp-gcc/lib/librte_eal.a(eal_common_memzone.o)
 .init_array    0x0000000000622d98        0x8 /root/hpc/x86_64-native-linuxapp-gcc/lib/librte_eal.a(eal_common_log.o)
 .init_array    0x0000000000622da0        0x8 /root/hpc/x86_64-native-linuxapp-gcc/lib/librte_eal.a(eal_common_memory.o)
 .init_array    0x0000000000622da8        0x8 /root/hpc/x86_64-native-linuxapp-gcc/lib/librte_eal.a(eal_common_tailqs.o)
 .init_array    0x0000000000622db0        0x8 /root/hpc/x86_64-native-linuxapp-gcc/lib/librte_eal.a(eal_common_cpuflags.o)
                0x0000000000622db8                PROVIDE (__init_array_end, .)

.fini_array     0x0000000000622db8        0x8
                0x0000000000622db8                PROVIDE (__fini_array_start, .)
 *(SORT(.fini_array.*) SORT(.dtors.*))
 *(.fini_array EXCLUDE_FILE(*crtend?.o *crtend.o *crtbegin?.o *crtbegin.o) .dtors)
 .fini_array    0x0000000000622db8        0x8 /usr/lib/gcc/x86_64-linux-gnu/4.8/crtbegin.o
                0x0000000000622dc0                PROVIDE (__fini_array_end, .)

.ctors
 *crtbegin.o(.ctors)
 *crtbegin?.o(.ctors)
 *(EXCLUDE_FILE(*crtend?.o *crtend.o) .ctors)
 *(SORT(.ctors.*))
 *(.ctors)

.dtors
 *crtbegin.o(.dtors)
 *crtbegin?.o(.dtors)
 *(EXCLUDE_FILE(*crtend?.o *crtend.o) .dtors)
 *(SORT(.dtors.*))
 *(.dtors)

.jcr            0x0000000000622dc0        0x8
 *(.jcr)
 .jcr           0x0000000000622dc0        0x0 /usr/lib/gcc/x86_64-linux-gnu/4.8/crtbegin.o
 .jcr           0x0000000000622dc0        0x8 /usr/lib/gcc/x86_64-linux-gnu/4.8/crtend.o

.data.rel.ro
 *(.data.rel.ro.local* .gnu.linkonce.d.rel.ro.local.*)
 *(.data.rel.ro .data.rel.ro.* .gnu.linkonce.d.rel.ro.*)

.dynamic        0x0000000000622dc8      0x210
 *(.dynamic)
 .dynamic       0x0000000000622dc8      0x210 /usr/lib/gcc/x86_64-linux-gnu/4.8/../../../x86_64-linux-gnu/crt1.o
                0x0000000000622dc8                _DYNAMIC

.got            0x0000000000622fd8       0x28
 *(.got)
 .got           0x0000000000622fd8       0x28 /usr/lib/gcc/x86_64-linux-gnu/4.8/../../../x86_64-linux-gnu/crt1.o
 *(.igot)
                0x0000000000623fe8                . = DATA_SEGMENT_RELRO_END (., (SIZEOF (.got.plt) >= 0x18)?0x18:0x0)

.got.plt        0x0000000000623000      0x348
 *(.got.plt)
 .got.plt       0x0000000000623000      0x348 /usr/lib/gcc/x86_64-linux-gnu/4.8/../../../x86_64-linux-gnu/crt1.o
                0x0000000000623000                _GLOBAL_OFFSET_TABLE_
 *(.igot.plt)
 .igot.plt      0x0000000000000000        0x0 /usr/lib/gcc/x86_64-linux-gnu/4.8/../../../x86_64-linux-gnu/crt1.o

.data           0x0000000000623360      0x6a0
 *(.data .data.* .gnu.linkonce.d.*)
 .data          0x0000000000623360        0x4 /usr/lib/gcc/x86_64-linux-gnu/4.8/../../../x86_64-linux-gnu/crt1.o
                0x0000000000623360                data_start
                0x0000000000623360                __data_start
 .data          0x0000000000623364        0x0 /usr/lib/gcc/x86_64-linux-gnu/4.8/../../../x86_64-linux-gnu/crti.o
 *fill*         0x0000000000623364        0x4 
 .data          0x0000000000623368        0x8 /usr/lib/gcc/x86_64-linux-gnu/4.8/crtbegin.o
                0x0000000000623368                __dso_handle
 .data          0x0000000000623370        0x0 main.o
 *fill*         0x0000000000623370       0x10 
 .data          0x0000000000623380      0x178 commands.o
                0x0000000000623380                main_ctx
                0x00000000006233a0                cmd_help
                0x00000000006233d0                cmd_help_help
                0x00000000006233f0                cmd_obj_add
                0x0000000000623430                cmd_obj_ip
                0x0000000000623450                cmd_obj_name
                0x0000000000623470                cmd_obj_action_add
                0x0000000000623490                cmd_obj_del_show
                0x00000000006234c0                cmd_obj_obj
                0x00000000006234e0                cmd_obj_action
 *fill*         0x00000000006234f8        0x8 
 .data          0x0000000000623500       0x20 parse_obj_list.o
                0x0000000000623500                token_obj_list_ops
 .data          0x0000000000623520        0x0 /root/hpc/x86_64-native-linuxapp-gcc/lib/librte_mbuf.a(rte_mbuf.o)
 .data          0x0000000000623520        0x0 /root/hpc/x86_64-native-linuxapp-gcc/lib/librte_malloc.a(rte_malloc.o)
 .data          0x0000000000623520        0x0 /root/hpc/x86_64-native-linuxapp-gcc/lib/librte_malloc.a(malloc_elem.o)
 .data          0x0000000000623520        0x0 /root/hpc/x86_64-native-linuxapp-gcc/lib/librte_malloc.a(malloc_heap.o)
 .data          0x0000000000623520       0x38 /root/hpc/x86_64-native-linuxapp-gcc/lib/librte_mempool.a(rte_mempool.o)
 *fill*         0x0000000000623558        0x8 
 .data          0x0000000000623560       0x38 /root/hpc/x86_64-native-linuxapp-gcc/lib/librte_ring.a(rte_ring.o)
 *fill*         0x0000000000623598        0x8 
 .data          0x00000000006235a0      0x260 /root/hpc/x86_64-native-linuxapp-gcc/lib/librte_eal.a(eal.o)
 .data          0x0000000000623800        0x0 /root/hpc/x86_64-native-linuxapp-gcc/lib/librte_eal.a(eal_hugepage_info.o)
 .data          0x0000000000623800        0x0 /root/hpc/x86_64-native-linuxapp-gcc/lib/librte_eal.a(eal_memory.o)
 .data          0x0000000000623800        0x0 /root/hpc/x86_64-native-linuxapp-gcc/lib/librte_eal.a(eal_thread.o)
 .data          0x0000000000623800        0x0 /root/hpc/x86_64-native-linuxapp-gcc/lib/librte_eal.a(eal_log.o)
 .data          0x0000000000623800        0x0 /root/hpc/x86_64-native-linuxapp-gcc/lib/librte_eal.a(eal_debug.o)
 .data          0x0000000000623800        0x0 /root/hpc/x86_64-native-linuxapp-gcc/lib/librte_eal.a(eal_lcore.o)
 .data          0x0000000000623800        0x4 /root/hpc/x86_64-native-linuxapp-gcc/lib/librte_eal.a(eal_timer.o)
                0x0000000000623800                eal_timer_source
 .data          0x0000000000623804        0x0 /root/hpc/x86_64-native-linuxapp-gcc/lib/librte_eal.a(eal_common_memzone.o)
 *fill*         0x0000000000623804        0xc 
 .data          0x0000000000623810       0x20 /root/hpc/x86_64-native-linuxapp-gcc/lib/librte_eal.a(eal_common_log.o)
                0x0000000000623820                rte_logs
 .data          0x0000000000623830        0x0 /root/hpc/x86_64-native-linuxapp-gcc/lib/librte_eal.a(eal_common_launch.o)
 .data          0x0000000000623830        0x0 /root/hpc/x86_64-native-linuxapp-gcc/lib/librte_eal.a(eal_common_memory.o)
 .data          0x0000000000623830       0x20 /root/hpc/x86_64-native-linuxapp-gcc/lib/librte_eal.a(eal_common_tailqs.o)
 .data          0x0000000000623850        0x0 /root/hpc/x86_64-native-linuxapp-gcc/lib/librte_eal.a(eal_common_errno.o)
 .data          0x0000000000623850        0x0 /root/hpc/x86_64-native-linuxapp-gcc/lib/librte_eal.a(eal_common_cpuflags.o)
 .data          0x0000000000623850        0x0 /root/hpc/x86_64-native-linuxapp-gcc/lib/librte_eal.a(eal_common_string_fns.o)
 .data          0x0000000000623850        0x0 /root/hpc/x86_64-native-linuxapp-gcc/lib/librte_eal.a(eal_common_hexdump.o)
 .data          0x0000000000623850       0x10 /root/hpc/x86_64-native-linuxapp-gcc/lib/librte_eal.a(eal_common_devargs.o)
                0x0000000000623850                devargs_list
 .data          0x0000000000623860       0x10 /root/hpc/x86_64-native-linuxapp-gcc/lib/librte_eal.a(eal_common_dev.o)
 .data          0x0000000000623870        0x0 /root/hpc/x86_64-native-linuxapp-gcc/lib/librte_eal.a(eal_common_options.o)
 .data          0x0000000000623870        0x0 /root/hpc/x86_64-native-linuxapp-gcc/lib/librte_eal.a(eal_common_thread.o)
 .data          0x0000000000623870        0x0 /root/hpc/x86_64-native-linuxapp-gcc/lib/librte_cmdline.a(cmdline.o)
 .data          0x0000000000623870        0x0 /root/hpc/x86_64-native-linuxapp-gcc/lib/librte_cmdline.a(cmdline_cirbuf.o)
 .data          0x0000000000623870        0x0 /root/hpc/x86_64-native-linuxapp-gcc/lib/librte_cmdline.a(cmdline_parse.o)
 *fill*         0x0000000000623870       0x10 
 .data          0x0000000000623880       0x20 /root/hpc/x86_64-native-linuxapp-gcc/lib/librte_cmdline.a(cmdline_parse_etheraddr.o)
                0x0000000000623880                cmdline_token_etheraddr_ops
 .data          0x00000000006238a0       0x20 /root/hpc/x86_64-native-linuxapp-gcc/lib/librte_cmdline.a(cmdline_parse_ipaddr.o)
                0x00000000006238a0                cmdline_token_ipaddr_ops
 .data          0x00000000006238c0       0x20 /root/hpc/x86_64-native-linuxapp-gcc/lib/librte_cmdline.a(cmdline_parse_num.o)
                0x00000000006238c0                cmdline_token_num_ops
 .data          0x00000000006238e0       0x20 /root/hpc/x86_64-native-linuxapp-gcc/lib/librte_cmdline.a(cmdline_parse_string.o)
                0x00000000006238e0                cmdline_token_string_ops
 .data          0x0000000000623900        0x0 /root/hpc/x86_64-native-linuxapp-gcc/lib/librte_cmdline.a(cmdline_rdline.o)
 .data          0x0000000000623900       0xd0 /root/hpc/x86_64-native-linuxapp-gcc/lib/librte_cmdline.a(cmdline_vt100.o)
                0x0000000000623900                cmdline_vt100_commands
 .data          0x00000000006239d0        0x0 /root/hpc/x86_64-native-linuxapp-gcc/lib/librte_cmdline.a(cmdline_socket.o)
 *fill*         0x00000000006239d0       0x10 
 .data          0x00000000006239e0       0x20 /root/hpc/x86_64-native-linuxapp-gcc/lib/librte_cmdline.a(cmdline_parse_portlist.o)
                0x00000000006239e0                cmdline_token_portlist_ops
 .data          0x0000000000623a00        0x0 /root/hpc/x86_64-native-linuxapp-gcc/lib/librte_cfgfile.a(rte_cfgfile.o)
 .data          0x0000000000623a00        0x0 /usr/lib/x86_64-linux-gnu/libc_nonshared.a(elf-init.oS)
 .data          0x0000000000623a00        0x0 /usr/lib/gcc/x86_64-linux-gnu/4.8/crtend.o
 .data          0x0000000000623a00        0x0 /usr/lib/gcc/x86_64-linux-gnu/4.8/../../../x86_64-linux-gnu/crtn.o

.tm_clone_table
                0x0000000000623a00        0x0
 .tm_clone_table
                0x0000000000623a00        0x0 /usr/lib/gcc/x86_64-linux-gnu/4.8/crtbegin.o
 .tm_clone_table
                0x0000000000623a00        0x0 /usr/lib/gcc/x86_64-linux-gnu/4.8/crtend.o

.data1
 *(.data1)
                0x0000000000623a00                _edata = .
                0x0000000000623a00                PROVIDE (edata, .)
                0x0000000000623a00                . = .
                0x0000000000623a00                __bss_start = .

.bss            0x0000000000623a00    0x40040
 *(.dynbss)
 .dynbss        0x0000000000623a00       0x50 /usr/lib/gcc/x86_64-linux-gnu/4.8/../../../x86_64-linux-gnu/crt1.o
                0x0000000000623a00                stdout@@GLIBC_2.2.5
                0x0000000000623a08                stdin@@GLIBC_2.2.5
                0x0000000000623a20                optind@@GLIBC_2.2.5
                0x0000000000623a40                optarg@@GLIBC_2.2.5
                0x0000000000623a48                stderr@@GLIBC_2.2.5
 *(.bss .bss.* .gnu.linkonce.b.*)
 .bss           0x0000000000623a50        0x0 /usr/lib/gcc/x86_64-linux-gnu/4.8/../../../x86_64-linux-gnu/crt1.o
 .bss           0x0000000000623a50        0x0 /usr/lib/gcc/x86_64-linux-gnu/4.8/../../../x86_64-linux-gnu/crti.o
 .bss           0x0000000000623a50        0x1 /usr/lib/gcc/x86_64-linux-gnu/4.8/crtbegin.o
 .bss           0x0000000000623a51        0x0 main.o
 .bss           0x0000000000623a51        0x0 commands.o
 .bss           0x0000000000623a51        0x0 parse_obj_list.o
 .bss           0x0000000000623a51        0x0 /root/hpc/x86_64-native-linuxapp-gcc/lib/librte_mbuf.a(rte_mbuf.o)
 .bss           0x0000000000623a51        0x1 /root/hpc/x86_64-native-linuxapp-gcc/lib/librte_malloc.a(rte_malloc.o)
 .bss           0x0000000000623a52        0x1 /root/hpc/x86_64-native-linuxapp-gcc/lib/librte_malloc.a(malloc_elem.o)
 .bss           0x0000000000623a53        0x1 /root/hpc/x86_64-native-linuxapp-gcc/lib/librte_malloc.a(malloc_heap.o)
 .bss           0x0000000000623a54        0x1 /root/hpc/x86_64-native-linuxapp-gcc/lib/librte_mempool.a(rte_mempool.o)
 .bss           0x0000000000623a55        0x1 /root/hpc/x86_64-native-linuxapp-gcc/lib/librte_ring.a(rte_ring.o)
 *fill*         0x0000000000623a56        0xa 
 .bss           0x0000000000623a60    0x36859 /root/hpc/x86_64-native-linuxapp-gcc/lib/librte_eal.a(eal.o)
 *fill*         0x000000000065a2b9        0x7 
 .bss           0x000000000065a2c0        0x8 /root/hpc/x86_64-native-linuxapp-gcc/lib/librte_eal.a(eal_hugepage_info.o)
 *fill*         0x000000000065a2c8       0x18 
 .bss           0x000000000065a2e0     0x1009 /root/hpc/x86_64-native-linuxapp-gcc/lib/librte_eal.a(eal_memory.o)
 .bss           0x000000000065b2e9        0x0 /root/hpc/x86_64-native-linuxapp-gcc/lib/librte_eal.a(eal_thread.o)
 *fill*         0x000000000065b2e9        0x7 
 .bss           0x000000000065b2f0        0x9 /root/hpc/x86_64-native-linuxapp-gcc/lib/librte_eal.a(eal_log.o)
 .bss           0x000000000065b2f9        0x0 /root/hpc/x86_64-native-linuxapp-gcc/lib/librte_eal.a(eal_debug.o)
 .bss           0x000000000065b2f9        0x0 /root/hpc/x86_64-native-linuxapp-gcc/lib/librte_eal.a(eal_lcore.o)
 *fill*         0x000000000065b2f9        0x7 
 .bss           0x000000000065b300        0x8 /root/hpc/x86_64-native-linuxapp-gcc/lib/librte_eal.a(eal_timer.o)
 *fill*         0x000000000065b308        0x8 
 .bss           0x000000000065b310        0x9 /root/hpc/x86_64-native-linuxapp-gcc/lib/librte_eal.a(eal_common_memzone.o)
 *fill*         0x000000000065b319       0x27 
 .bss           0x000000000065b340     0x2039 /root/hpc/x86_64-native-linuxapp-gcc/lib/librte_eal.a(eal_common_log.o)
 .bss           0x000000000065d379        0x0 /root/hpc/x86_64-native-linuxapp-gcc/lib/librte_eal.a(eal_common_launch.o)
 .bss           0x000000000065d379        0x1 /root/hpc/x86_64-native-linuxapp-gcc/lib/librte_eal.a(eal_common_memory.o)
 .bss           0x000000000065d37a        0x1 /root/hpc/x86_64-native-linuxapp-gcc/lib/librte_eal.a(eal_common_tailqs.o)
 .bss           0x000000000065d37b        0x0 /root/hpc/x86_64-native-linuxapp-gcc/lib/librte_eal.a(eal_common_errno.o)
 .bss           0x000000000065d37b        0x0 /root/hpc/x86_64-native-linuxapp-gcc/lib/librte_eal.a(eal_common_cpuflags.o)
 .bss           0x000000000065d37b        0x0 /root/hpc/x86_64-native-linuxapp-gcc/lib/librte_eal.a(eal_common_string_fns.o)
 .bss           0x000000000065d37b        0x0 /root/hpc/x86_64-native-linuxapp-gcc/lib/librte_eal.a(eal_common_hexdump.o)
 .bss           0x000000000065d37b        0x0 /root/hpc/x86_64-native-linuxapp-gcc/lib/librte_eal.a(eal_common_devargs.o)
 .bss           0x000000000065d37b        0x0 /root/hpc/x86_64-native-linuxapp-gcc/lib/librte_eal.a(eal_common_dev.o)
 *fill*         0x000000000065d37b        0x5 
 .bss           0x000000000065d380      0x144 /root/hpc/x86_64-native-linuxapp-gcc/lib/librte_eal.a(eal_common_options.o)
 .bss           0x000000000065d4c4        0x0 /root/hpc/x86_64-native-linuxapp-gcc/lib/librte_eal.a(eal_common_thread.o)
 .bss           0x000000000065d4c4        0x0 /root/hpc/x86_64-native-linuxapp-gcc/lib/librte_cmdline.a(cmdline.o)
 .bss           0x000000000065d4c4        0x0 /root/hpc/x86_64-native-linuxapp-gcc/lib/librte_cmdline.a(cmdline_cirbuf.o)
 .bss           0x000000000065d4c4        0x0 /root/hpc/x86_64-native-linuxapp-gcc/lib/librte_cmdline.a(cmdline_parse.o)
 *fill*         0x000000000065d4c4        0xc 
 .bss           0x000000000065d4d0        0x6 /root/hpc/x86_64-native-linuxapp-gcc/lib/librte_cmdline.a(cmdline_parse_etheraddr.o)
 .bss           0x000000000065d4d6        0x0 /root/hpc/x86_64-native-linuxapp-gcc/lib/librte_cmdline.a(cmdline_parse_ipaddr.o)
 .bss           0x000000000065d4d6        0x0 /root/hpc/x86_64-native-linuxapp-gcc/lib/librte_cmdline.a(cmdline_parse_num.o)
 .bss           0x000000000065d4d6        0x0 /root/hpc/x86_64-native-linuxapp-gcc/lib/librte_cmdline.a(cmdline_parse_string.o)
 .bss           0x000000000065d4d6        0x0 /root/hpc/x86_64-native-linuxapp-gcc/lib/librte_cmdline.a(cmdline_rdline.o)
 .bss           0x000000000065d4d6        0x0 /root/hpc/x86_64-native-linuxapp-gcc/lib/librte_cmdline.a(cmdline_vt100.o)
 .bss           0x000000000065d4d6        0x0 /root/hpc/x86_64-native-linuxapp-gcc/lib/librte_cmdline.a(cmdline_socket.o)
 .bss           0x000000000065d4d6        0x0 /root/hpc/x86_64-native-linuxapp-gcc/lib/librte_cmdline.a(cmdline_parse_portlist.o)
 .bss           0x000000000065d4d6        0x0 /root/hpc/x86_64-native-linuxapp-gcc/lib/librte_cfgfile.a(rte_cfgfile.o)
 .bss           0x000000000065d4d6        0x0 /usr/lib/x86_64-linux-gnu/libc_nonshared.a(elf-init.oS)
 .bss           0x000000000065d4d6        0x0 /usr/lib/gcc/x86_64-linux-gnu/4.8/crtend.o
 .bss           0x000000000065d4d6        0x0 /usr/lib/gcc/x86_64-linux-gnu/4.8/../../../x86_64-linux-gnu/crtn.o
 *(COMMON)
 *fill*         0x000000000065d4d6        0x2 
 COMMON         0x000000000065d4d8        0x8 commands.o
                0x000000000065d4d8                global_obj_list
 COMMON         0x000000000065d4e0     0x6560 /root/hpc/x86_64-native-linuxapp-gcc/lib/librte_eal.a(eal.o)
                0x000000000065d4e0                internal_config
                0x000000000065d640                lcore_config
                0x0000000000663a40                . = ALIGN ((. != 0x0)?0x8:0x1)

.lbss
 *(.dynlbss)
 *(.lbss .lbss.* .gnu.linkonce.lb.*)
 *(LARGE_COMMON)
                0x0000000000663a40                . = ALIGN (0x8)
                0x0000000000663a40                . = SEGMENT_START ("ldata-segment", .)

.lrodata
 *(.lrodata .lrodata.* .gnu.linkonce.lr.*)

.ldata          0x0000000000a63a40        0x0
 *(.ldata .ldata.* .gnu.linkonce.l.*)
                0x0000000000a63a40                . = ALIGN ((. != 0x0)?0x8:0x1)
                0x0000000000a63a40                . = ALIGN (0x8)
                0x0000000000a63a40                _end = .
                0x0000000000a63a40                PROVIDE (end, .)
                0x0000000000a63a40                . = DATA_SEGMENT_END (.)

.stab
 *(.stab)

.stabstr
 *(.stabstr)

.stab.excl
 *(.stab.excl)

.stab.exclstr
 *(.stab.exclstr)

.stab.index
 *(.stab.index)

.stab.indexstr
 *(.stab.indexstr)

.comment        0x0000000000000000       0x24
 *(.comment)
 .comment       0x0000000000000000       0x24 /usr/lib/gcc/x86_64-linux-gnu/4.8/crtbegin.o
                                         0x25 (size before relaxing)
 .comment       0x0000000000000000       0x25 main.o
 .comment       0x0000000000000000       0x25 commands.o
 .comment       0x0000000000000000       0x25 parse_obj_list.o
 .comment       0x0000000000000000       0x25 /root/hpc/x86_64-native-linuxapp-gcc/lib/librte_mbuf.a(rte_mbuf.o)
 .comment       0x0000000000000000       0x25 /root/hpc/x86_64-native-linuxapp-gcc/lib/librte_malloc.a(rte_malloc.o)
 .comment       0x0000000000000000       0x25 /root/hpc/x86_64-native-linuxapp-gcc/lib/librte_malloc.a(malloc_elem.o)
 .comment       0x0000000000000000       0x25 /root/hpc/x86_64-native-linuxapp-gcc/lib/librte_malloc.a(malloc_heap.o)
 .comment       0x0000000000000000       0x25 /root/hpc/x86_64-native-linuxapp-gcc/lib/librte_mempool.a(rte_mempool.o)
 .comment       0x0000000000000000       0x25 /root/hpc/x86_64-native-linuxapp-gcc/lib/librte_ring.a(rte_ring.o)
 .comment       0x0000000000000000       0x25 /root/hpc/x86_64-native-linuxapp-gcc/lib/librte_eal.a(eal.o)
 .comment       0x0000000000000000       0x25 /root/hpc/x86_64-native-linuxapp-gcc/lib/librte_eal.a(eal_hugepage_info.o)
 .comment       0x0000000000000000       0x25 /root/hpc/x86_64-native-linuxapp-gcc/lib/librte_eal.a(eal_memory.o)
 .comment       0x0000000000000000       0x25 /root/hpc/x86_64-native-linuxapp-gcc/lib/librte_eal.a(eal_thread.o)
 .comment       0x0000000000000000       0x25 /root/hpc/x86_64-native-linuxapp-gcc/lib/librte_eal.a(eal_log.o)
 .comment       0x0000000000000000       0x25 /root/hpc/x86_64-native-linuxapp-gcc/lib/librte_eal.a(eal_debug.o)
 .comment       0x0000000000000000       0x25 /root/hpc/x86_64-native-linuxapp-gcc/lib/librte_eal.a(eal_lcore.o)
 .comment       0x0000000000000000       0x25 /root/hpc/x86_64-native-linuxapp-gcc/lib/librte_eal.a(eal_timer.o)
 .comment       0x0000000000000000       0x25 /root/hpc/x86_64-native-linuxapp-gcc/lib/librte_eal.a(eal_common_memzone.o)
 .comment       0x0000000000000000       0x25 /root/hpc/x86_64-native-linuxapp-gcc/lib/librte_eal.a(eal_common_log.o)
 .comment       0x0000000000000000       0x25 /root/hpc/x86_64-native-linuxapp-gcc/lib/librte_eal.a(eal_common_launch.o)
 .comment       0x0000000000000000       0x25 /root/hpc/x86_64-native-linuxapp-gcc/lib/librte_eal.a(eal_common_memory.o)
 .comment       0x0000000000000000       0x25 /root/hpc/x86_64-native-linuxapp-gcc/lib/librte_eal.a(eal_common_tailqs.o)
 .comment       0x0000000000000000       0x25 /root/hpc/x86_64-native-linuxapp-gcc/lib/librte_eal.a(eal_common_errno.o)
 .comment       0x0000000000000000       0x25 /root/hpc/x86_64-native-linuxapp-gcc/lib/librte_eal.a(eal_common_cpuflags.o)
 .comment       0x0000000000000000       0x25 /root/hpc/x86_64-native-linuxapp-gcc/lib/librte_eal.a(eal_common_string_fns.o)
 .comment       0x0000000000000000       0x25 /root/hpc/x86_64-native-linuxapp-gcc/lib/librte_eal.a(eal_common_hexdump.o)
 .comment       0x0000000000000000       0x25 /root/hpc/x86_64-native-linuxapp-gcc/lib/librte_eal.a(eal_common_devargs.o)
 .comment       0x0000000000000000       0x25 /root/hpc/x86_64-native-linuxapp-gcc/lib/librte_eal.a(eal_common_dev.o)
 .comment       0x0000000000000000       0x25 /root/hpc/x86_64-native-linuxapp-gcc/lib/librte_eal.a(eal_common_options.o)
 .comment       0x0000000000000000       0x25 /root/hpc/x86_64-native-linuxapp-gcc/lib/librte_eal.a(eal_common_thread.o)
 .comment       0x0000000000000000       0x25 /root/hpc/x86_64-native-linuxapp-gcc/lib/librte_cmdline.a(cmdline.o)
 .comment       0x0000000000000000       0x25 /root/hpc/x86_64-native-linuxapp-gcc/lib/librte_cmdline.a(cmdline_cirbuf.o)
 .comment       0x0000000000000000       0x25 /root/hpc/x86_64-native-linuxapp-gcc/lib/librte_cmdline.a(cmdline_parse.o)
 .comment       0x0000000000000000       0x25 /root/hpc/x86_64-native-linuxapp-gcc/lib/librte_cmdline.a(cmdline_parse_etheraddr.o)
 .comment       0x0000000000000000       0x25 /root/hpc/x86_64-native-linuxapp-gcc/lib/librte_cmdline.a(cmdline_parse_ipaddr.o)
 .comment       0x0000000000000000       0x25 /root/hpc/x86_64-native-linuxapp-gcc/lib/librte_cmdline.a(cmdline_parse_num.o)
 .comment       0x0000000000000000       0x25 /root/hpc/x86_64-native-linuxapp-gcc/lib/librte_cmdline.a(cmdline_parse_string.o)
 .comment       0x0000000000000000       0x25 /root/hpc/x86_64-native-linuxapp-gcc/lib/librte_cmdline.a(cmdline_rdline.o)
 .comment       0x0000000000000000       0x25 /root/hpc/x86_64-native-linuxapp-gcc/lib/librte_cmdline.a(cmdline_vt100.o)
 .comment       0x0000000000000000       0x25 /root/hpc/x86_64-native-linuxapp-gcc/lib/librte_cmdline.a(cmdline_socket.o)
 .comment       0x0000000000000000       0x25 /root/hpc/x86_64-native-linuxapp-gcc/lib/librte_cmdline.a(cmdline_parse_portlist.o)
 .comment       0x0000000000000000       0x25 /root/hpc/x86_64-native-linuxapp-gcc/lib/librte_cfgfile.a(rte_cfgfile.o)
 .comment       0x0000000000000000       0x25 /usr/lib/x86_64-linux-gnu/libc_nonshared.a(elf-init.oS)
 .comment       0x0000000000000000       0x25 /usr/lib/gcc/x86_64-linux-gnu/4.8/crtend.o

.debug
 *(.debug)

.line
 *(.line)

.debug_srcinfo
 *(.debug_srcinfo)

.debug_sfnames
 *(.debug_sfnames)

.debug_aranges
 *(.debug_aranges)

.debug_pubnames
 *(.debug_pubnames)

.debug_info
 *(.debug_info .gnu.linkonce.wi.*)

.debug_abbrev
 *(.debug_abbrev)

.debug_line
 *(.debug_line .debug_line.* .debug_line_end)

.debug_frame
 *(.debug_frame)

.debug_str
 *(.debug_str)

.debug_loc
 *(.debug_loc)

.debug_macinfo
 *(.debug_macinfo)

.debug_weaknames
 *(.debug_weaknames)

.debug_funcnames
 *(.debug_funcnames)

.debug_typenames
 *(.debug_typenames)

.debug_varnames
 *(.debug_varnames)

.debug_pubtypes
 *(.debug_pubtypes)

.debug_ranges
 *(.debug_ranges)

.debug_macro
 *(.debug_macro)

.gnu.attributes
 *(.gnu.attributes)

/DISCARD/
 *(.note.GNU-stack)
 *(.gnu_debuglink)
 *(.gnu.lto_*)
OUTPUT(cmdline elf64-x86-64)

Cross Reference Table

Symbol                                            File
GLIBC_2.10                                        /lib/x86_64-linux-gnu/libc.so.6
GLIBC_2.11                                        /lib/x86_64-linux-gnu/libpthread.so.0
                                                  /lib/x86_64-linux-gnu/libc.so.6
GLIBC_2.12                                        /lib/x86_64-linux-gnu/libpthread.so.0
                                                  /lib/x86_64-linux-gnu/libc.so.6
GLIBC_2.13                                        /lib/x86_64-linux-gnu/libc.so.6
GLIBC_2.14                                        /lib/x86_64-linux-gnu/libc.so.6
GLIBC_2.15                                        /usr/lib/gcc/x86_64-linux-gnu/4.8/../../../x86_64-linux-gnu/libm.so
                                                  /lib/x86_64-linux-gnu/libc.so.6
GLIBC_2.16                                        /lib/x86_64-linux-gnu/libc.so.6
GLIBC_2.17                                        /lib/x86_64-linux-gnu/libc.so.6
GLIBC_2.18                                        /usr/lib/gcc/x86_64-linux-gnu/4.8/../../../x86_64-linux-gnu/libm.so
                                                  /lib/x86_64-linux-gnu/libc.so.6
                                                  /lib/x86_64-linux-gnu/libpthread.so.0
GLIBC_2.2.5                                       /usr/lib/gcc/x86_64-linux-gnu/4.8/../../../x86_64-linux-gnu/librt.so
                                                  /lib/x86_64-linux-gnu/ld-linux-x86-64.so.2
                                                  /lib/x86_64-linux-gnu/libc.so.6
                                                  /lib/x86_64-linux-gnu/libpthread.so.0
                                                  /usr/lib/gcc/x86_64-linux-gnu/4.8/../../../x86_64-linux-gnu/libdl.so
                                                  /usr/lib/gcc/x86_64-linux-gnu/4.8/../../../x86_64-linux-gnu/libm.so
GLIBC_2.2.6                                       /lib/x86_64-linux-gnu/libpthread.so.0
                                                  /lib/x86_64-linux-gnu/libc.so.6
GLIBC_2.3                                         /lib/x86_64-linux-gnu/libc.so.6
                                                  /lib/x86_64-linux-gnu/ld-linux-x86-64.so.2
GLIBC_2.3.2                                       /lib/x86_64-linux-gnu/libpthread.so.0
                                                  /lib/x86_64-linux-gnu/libc.so.6
GLIBC_2.3.3                                       /usr/lib/gcc/x86_64-linux-gnu/4.8/../../../x86_64-linux-gnu/librt.so
                                                  /lib/x86_64-linux-gnu/libc.so.6
                                                  /lib/x86_64-linux-gnu/libpthread.so.0
                                                  /usr/lib/gcc/x86_64-linux-gnu/4.8/../../../x86_64-linux-gnu/libdl.so
GLIBC_2.3.4                                       /usr/lib/gcc/x86_64-linux-gnu/4.8/../../../x86_64-linux-gnu/librt.so
                                                  /lib/x86_64-linux-gnu/libc.so.6
                                                  /lib/x86_64-linux-gnu/libpthread.so.0
                                                  /usr/lib/gcc/x86_64-linux-gnu/4.8/../../../x86_64-linux-gnu/libdl.so
GLIBC_2.4                                         /usr/lib/gcc/x86_64-linux-gnu/4.8/../../../x86_64-linux-gnu/librt.so
                                                  /lib/x86_64-linux-gnu/ld-linux-x86-64.so.2
                                                  /lib/x86_64-linux-gnu/libc.so.6
                                                  /lib/x86_64-linux-gnu/libpthread.so.0
                                                  /usr/lib/gcc/x86_64-linux-gnu/4.8/../../../x86_64-linux-gnu/libm.so
GLIBC_2.5                                         /lib/x86_64-linux-gnu/libc.so.6
GLIBC_2.6                                         /lib/x86_64-linux-gnu/libc.so.6
GLIBC_2.7                                         /usr/lib/gcc/x86_64-linux-gnu/4.8/../../../x86_64-linux-gnu/librt.so
                                                  /lib/x86_64-linux-gnu/libc.so.6
GLIBC_2.8                                         /lib/x86_64-linux-gnu/libc.so.6
GLIBC_2.9                                         /lib/x86_64-linux-gnu/libc.so.6
GLIBC_PRIVATE                                     /usr/lib/gcc/x86_64-linux-gnu/4.8/../../../x86_64-linux-gnu/libdl.so
                                                  /lib/x86_64-linux-gnu/ld-linux-x86-64.so.2
                                                  /lib/x86_64-linux-gnu/libc.so.6
                                                  /lib/x86_64-linux-gnu/libpthread.so.0
_DYNAMIC                                          /usr/lib/gcc/x86_64-linux-gnu/4.8/../../../x86_64-linux-gnu/crt1.o
_Exit                                             /lib/x86_64-linux-gnu/libc.so.6
_Exit@@GLIBC_2.2.5                                /lib/x86_64-linux-gnu/libc.so.6
_Exit@GLIBC_2.2.5                                 /lib/x86_64-linux-gnu/libc.so.6
_GLOBAL_OFFSET_TABLE_                             /usr/lib/gcc/x86_64-linux-gnu/4.8/../../../x86_64-linux-gnu/crt1.o
                                                  /usr/lib/x86_64-linux-gnu/libc_nonshared.a(elf-init.oS)
                                                  /root/hpc/x86_64-native-linuxapp-gcc/lib/librte_eal.a(eal_common_thread.o)
                                                  /root/hpc/x86_64-native-linuxapp-gcc/lib/librte_eal.a(eal_common_errno.o)
                                                  /root/hpc/x86_64-native-linuxapp-gcc/lib/librte_eal.a(eal_common_log.o)
                                                  /root/hpc/x86_64-native-linuxapp-gcc/lib/librte_eal.a(eal_common_memzone.o)
                                                  /root/hpc/x86_64-native-linuxapp-gcc/lib/librte_eal.a(eal_thread.o)
                                                  /root/hpc/x86_64-native-linuxapp-gcc/lib/librte_ring.a(rte_ring.o)
                                                  /root/hpc/x86_64-native-linuxapp-gcc/lib/librte_mempool.a(rte_mempool.o)
                                                  /usr/lib/gcc/x86_64-linux-gnu/4.8/../../../x86_64-linux-gnu/crti.o
_IO_fprintf                                       /lib/x86_64-linux-gnu/libc.so.6
_IO_fprintf@@GLIBC_2.2.5                          /lib/x86_64-linux-gnu/libc.so.6
_IO_fprintf@GLIBC_2.2.5                           /lib/x86_64-linux-gnu/libc.so.6
_IO_stdin_used                                    /usr/lib/gcc/x86_64-linux-gnu/4.8/../../../x86_64-linux-gnu/crt1.o
_ITM_deregisterTMCloneTable                       /lib/x86_64-linux-gnu/libpthread.so.0
                                                  /usr/lib/gcc/x86_64-linux-gnu/4.8/../../../x86_64-linux-gnu/libdl.so
                                                  /usr/lib/gcc/x86_64-linux-gnu/4.8/../../../x86_64-linux-gnu/libm.so
                                                  /usr/lib/gcc/x86_64-linux-gnu/4.8/../../../x86_64-linux-gnu/librt.so
                                                  /usr/lib/gcc/x86_64-linux-gnu/4.8/crtbegin.o
_ITM_registerTMCloneTable                         /lib/x86_64-linux-gnu/libpthread.so.0
                                                  /usr/lib/gcc/x86_64-linux-gnu/4.8/../../../x86_64-linux-gnu/libdl.so
                                                  /usr/lib/gcc/x86_64-linux-gnu/4.8/../../../x86_64-linux-gnu/libm.so
                                                  /usr/lib/gcc/x86_64-linux-gnu/4.8/../../../x86_64-linux-gnu/librt.so
                                                  /usr/lib/gcc/x86_64-linux-gnu/4.8/crtbegin.o
_Jv_RegisterClasses                               /lib/x86_64-linux-gnu/libpthread.so.0
                                                  /usr/lib/gcc/x86_64-linux-gnu/4.8/../../../x86_64-linux-gnu/libdl.so
                                                  /usr/lib/gcc/x86_64-linux-gnu/4.8/../../../x86_64-linux-gnu/libm.so
                                                  /usr/lib/gcc/x86_64-linux-gnu/4.8/../../../x86_64-linux-gnu/librt.so
                                                  /usr/lib/gcc/x86_64-linux-gnu/4.8/crtbegin.o
_LIB_VERSION                                      /usr/lib/gcc/x86_64-linux-gnu/4.8/../../../x86_64-linux-gnu/libm.so
_LIB_VERSION@@GLIBC_2.2.5                         /usr/lib/gcc/x86_64-linux-gnu/4.8/../../../x86_64-linux-gnu/libm.so
_LIB_VERSION@GLIBC_2.2.5                          /usr/lib/gcc/x86_64-linux-gnu/4.8/../../../x86_64-linux-gnu/libm.so
__TMC_END__                                       /usr/lib/gcc/x86_64-linux-gnu/4.8/crtend.o
                                                  /usr/lib/gcc/x86_64-linux-gnu/4.8/crtbegin.o
__after_morecore_hook                             /lib/x86_64-linux-gnu/libc.so.6
__after_morecore_hook@@GLIBC_2.2.5                /lib/x86_64-linux-gnu/libc.so.6
__after_morecore_hook@GLIBC_2.2.5                 /lib/x86_64-linux-gnu/libc.so.6
__assert_fail                                     /lib/x86_64-linux-gnu/libc.so.6
                                                  /root/hpc/x86_64-native-linuxapp-gcc/lib/librte_eal.a(eal_common_thread.o)
__assert_fail@@GLIBC_2.2.5                        /lib/x86_64-linux-gnu/libc.so.6
__assert_fail@GLIBC_2.2.5                         /lib/x86_64-linux-gnu/libc.so.6
                                                  /lib/x86_64-linux-gnu/libpthread.so.0
                                                  /usr/lib/gcc/x86_64-linux-gnu/4.8/../../../x86_64-linux-gnu/libm.so
                                                  /usr/lib/gcc/x86_64-linux-gnu/4.8/../../../x86_64-linux-gnu/librt.so
__close                                           /lib/x86_64-linux-gnu/libpthread.so.0
__close@@GLIBC_2.2.5                              /lib/x86_64-linux-gnu/libpthread.so.0
                                                  /lib/x86_64-linux-gnu/libc.so.6
__close@GLIBC_2.2.5                               /lib/x86_64-linux-gnu/libpthread.so.0
__connect                                         /lib/x86_64-linux-gnu/libpthread.so.0
__connect@@GLIBC_2.2.5                            /lib/x86_64-linux-gnu/libpthread.so.0
                                                  /lib/x86_64-linux-gnu/libc.so.6
__connect@GLIBC_2.2.5                             /lib/x86_64-linux-gnu/libpthread.so.0
__ctype_b_loc                                     /lib/x86_64-linux-gnu/libc.so.6
                                                  /root/hpc/x86_64-native-linuxapp-gcc/lib/librte_cfgfile.a(rte_cfgfile.o)
                                                  /root/hpc/x86_64-native-linuxapp-gcc/lib/librte_cmdline.a(cmdline_rdline.o)
                                                  /root/hpc/x86_64-native-linuxapp-gcc/lib/librte_eal.a(eal_common_options.o)
                                                  /root/hpc/x86_64-native-linuxapp-gcc/lib/librte_eal.a(eal_hugepage_info.o)
                                                  /root/hpc/x86_64-native-linuxapp-gcc/lib/librte_eal.a(eal.o)
                                                  /root/hpc/x86_64-native-linuxapp-gcc/lib/librte_malloc.a(malloc_heap.o)
__ctype_b_loc@@GLIBC_2.3                          /lib/x86_64-linux-gnu/libc.so.6
__ctype_b_loc@GLIBC_2.3                           /lib/x86_64-linux-gnu/libc.so.6
__ctype_get_mb_cur_max                            /lib/x86_64-linux-gnu/libc.so.6
__ctype_get_mb_cur_max@@GLIBC_2.2.5               /lib/x86_64-linux-gnu/libc.so.6
__ctype_get_mb_cur_max@GLIBC_2.2.5                /lib/x86_64-linux-gnu/libc.so.6
__data_start                                      /usr/lib/gcc/x86_64-linux-gnu/4.8/../../../x86_64-linux-gnu/crt1.o
__dso_handle                                      /usr/lib/gcc/x86_64-linux-gnu/4.8/crtbegin.o
__errno_location                                  /lib/x86_64-linux-gnu/libpthread.so.0
                                                  /root/hpc/x86_64-native-linuxapp-gcc/lib/librte_cmdline.a(cmdline_parse_portlist.o)
                                                  /root/hpc/x86_64-native-linuxapp-gcc/lib/librte_cmdline.a(cmdline_parse_ipaddr.o)
                                                  /root/hpc/x86_64-native-linuxapp-gcc/lib/librte_cmdline.a(cmdline_parse_etheraddr.o)
                                                  /root/hpc/x86_64-native-linuxapp-gcc/lib/librte_eal.a(eal_common_options.o)
                                                  /root/hpc/x86_64-native-linuxapp-gcc/lib/librte_eal.a(eal_common_devargs.o)
                                                  /root/hpc/x86_64-native-linuxapp-gcc/lib/librte_eal.a(eal_common_string_fns.o)
                                                  /root/hpc/x86_64-native-linuxapp-gcc/lib/librte_eal.a(eal_thread.o)
                                                  /root/hpc/x86_64-native-linuxapp-gcc/lib/librte_eal.a(eal_memory.o)
                                                  /root/hpc/x86_64-native-linuxapp-gcc/lib/librte_eal.a(eal_hugepage_info.o)
                                                  /root/hpc/x86_64-native-linuxapp-gcc/lib/librte_eal.a(eal.o)
                                                  /root/hpc/x86_64-native-linuxapp-gcc/lib/librte_malloc.a(malloc_heap.o)
__errno_location@@GLIBC_2.2.5                     /lib/x86_64-linux-gnu/libpthread.so.0
                                                  /lib/x86_64-linux-gnu/libc.so.6
__errno_location@GLIBC_2.2.5                      /lib/x86_64-linux-gnu/libpthread.so.0
                                                  /usr/lib/gcc/x86_64-linux-gnu/4.8/../../../x86_64-linux-gnu/libm.so
__fcntl                                           /lib/x86_64-linux-gnu/libpthread.so.0
__fcntl@@GLIBC_2.2.5                              /lib/x86_64-linux-gnu/libpthread.so.0
                                                  /lib/x86_64-linux-gnu/libc.so.6
__fcntl@GLIBC_2.2.5                               /lib/x86_64-linux-gnu/libpthread.so.0
__fprintf_chk                                     /lib/x86_64-linux-gnu/libc.so.6
                                                  /root/hpc/x86_64-native-linuxapp-gcc/lib/librte_eal.a(eal_common_devargs.o)
                                                  /root/hpc/x86_64-native-linuxapp-gcc/lib/librte_eal.a(eal_common_hexdump.o)
                                                  /root/hpc/x86_64-native-linuxapp-gcc/lib/librte_eal.a(eal_common_cpuflags.o)
                                                  /root/hpc/x86_64-native-linuxapp-gcc/lib/librte_eal.a(eal_common_tailqs.o)
                                                  /root/hpc/x86_64-native-linuxapp-gcc/lib/librte_eal.a(eal_common_memory.o)
                                                  /root/hpc/x86_64-native-linuxapp-gcc/lib/librte_eal.a(eal_common_memzone.o)
                                                  /root/hpc/x86_64-native-linuxapp-gcc/lib/librte_ring.a(rte_ring.o)
                                                  /root/hpc/x86_64-native-linuxapp-gcc/lib/librte_mempool.a(rte_mempool.o)
                                                  /root/hpc/x86_64-native-linuxapp-gcc/lib/librte_malloc.a(rte_malloc.o)
                                                  /root/hpc/x86_64-native-linuxapp-gcc/lib/librte_mbuf.a(rte_mbuf.o)
__fprintf_chk@@GLIBC_2.3.4                        /lib/x86_64-linux-gnu/libc.so.6
__fprintf_chk@GLIBC_2.3.4                         /lib/x86_64-linux-gnu/libc.so.6
__free_hook                                       /lib/x86_64-linux-gnu/libc.so.6
__free_hook@@GLIBC_2.2.5                          /lib/x86_64-linux-gnu/libc.so.6
__free_hook@GLIBC_2.2.5                           /lib/x86_64-linux-gnu/libc.so.6
__fxstat64                                        /lib/x86_64-linux-gnu/libc.so.6
                                                  /root/hpc/x86_64-native-linuxapp-gcc/lib/librte_eal.a(eal_memory.o)
__fxstat64@@GLIBC_2.2.5                           /lib/x86_64-linux-gnu/libc.so.6
__fxstat64@GLIBC_2.2.5                            /lib/x86_64-linux-gnu/libc.so.6
                                                  /lib/x86_64-linux-gnu/libpthread.so.0
__getdelim                                        /lib/x86_64-linux-gnu/libc.so.6
__getdelim@@GLIBC_2.2.5                           /lib/x86_64-linux-gnu/libc.so.6
__getdelim@GLIBC_2.2.5                            /lib/x86_64-linux-gnu/libc.so.6
                                                  /lib/x86_64-linux-gnu/libpthread.so.0
__gmon_start__                                    /usr/lib/gcc/x86_64-linux-gnu/4.8/../../../x86_64-linux-gnu/libdl.so
                                                  /usr/lib/gcc/x86_64-linux-gnu/4.8/../../../x86_64-linux-gnu/libm.so
                                                  /usr/lib/gcc/x86_64-linux-gnu/4.8/../../../x86_64-linux-gnu/librt.so
                                                  /usr/lib/gcc/x86_64-linux-gnu/4.8/../../../x86_64-linux-gnu/crti.o
__init_array_end                                  /usr/lib/x86_64-linux-gnu/libc_nonshared.a(elf-init.oS)
__init_array_start                                /usr/lib/x86_64-linux-gnu/libc_nonshared.a(elf-init.oS)
__isascii_l                                       /lib/x86_64-linux-gnu/libc.so.6
__isascii_l@@GLIBC_2.2.5                          /lib/x86_64-linux-gnu/libc.so.6
__isascii_l@GLIBC_2.2.5                           /lib/x86_64-linux-gnu/libc.so.6
__libc_csu_fini                                   /usr/lib/x86_64-linux-gnu/libc_nonshared.a(elf-init.oS)
                                                  /usr/lib/gcc/x86_64-linux-gnu/4.8/../../../x86_64-linux-gnu/crt1.o
__libc_csu_init                                   /usr/lib/x86_64-linux-gnu/libc_nonshared.a(elf-init.oS)
                                                  /usr/lib/gcc/x86_64-linux-gnu/4.8/../../../x86_64-linux-gnu/crt1.o
__libc_secure_getenv                              /lib/x86_64-linux-gnu/libc.so.6
__libc_secure_getenv@@GLIBC_PRIVATE               /lib/x86_64-linux-gnu/libc.so.6
__libc_secure_getenv@GLIBC_PRIVATE                /lib/x86_64-linux-gnu/libc.so.6
__libc_start_main                                 /lib/x86_64-linux-gnu/libc.so.6
                                                  /usr/lib/gcc/x86_64-linux-gnu/4.8/../../../x86_64-linux-gnu/crt1.o
__libc_start_main@@GLIBC_2.2.5                    /lib/x86_64-linux-gnu/libc.so.6
__libc_start_main@GLIBC_2.2.5                     /lib/x86_64-linux-gnu/libc.so.6
__lseek                                           /lib/x86_64-linux-gnu/libpthread.so.0
__lseek@@GLIBC_2.2.5                              /lib/x86_64-linux-gnu/libpthread.so.0
                                                  /lib/x86_64-linux-gnu/libc.so.6
__lseek@GLIBC_2.2.5                               /lib/x86_64-linux-gnu/libpthread.so.0
__malloc_hook                                     /lib/x86_64-linux-gnu/libc.so.6
__malloc_hook@@GLIBC_2.2.5                        /lib/x86_64-linux-gnu/libc.so.6
__malloc_hook@GLIBC_2.2.5                         /lib/x86_64-linux-gnu/libc.so.6
__malloc_initialize_hook                          /lib/x86_64-linux-gnu/libc.so.6
__malloc_initialize_hook@@GLIBC_2.2.5             /lib/x86_64-linux-gnu/libc.so.6
__malloc_initialize_hook@GLIBC_2.2.5              /lib/x86_64-linux-gnu/libc.so.6
__memalign_hook                                   /lib/x86_64-linux-gnu/libc.so.6
__memalign_hook@@GLIBC_2.2.5                      /lib/x86_64-linux-gnu/libc.so.6
__memalign_hook@GLIBC_2.2.5                       /lib/x86_64-linux-gnu/libc.so.6
__memcpy_chk                                      /lib/x86_64-linux-gnu/libc.so.6
                                                  /root/hpc/x86_64-native-linuxapp-gcc/lib/librte_eal.a(eal_log.o)
__memcpy_chk@@GLIBC_2.3.4                         /lib/x86_64-linux-gnu/libc.so.6
__memcpy_chk@GLIBC_2.3.4                          /lib/x86_64-linux-gnu/libc.so.6
__nanosleep                                       /lib/x86_64-linux-gnu/libpthread.so.0
__nanosleep@@GLIBC_2.2.6                          /lib/x86_64-linux-gnu/libpthread.so.0
                                                  /lib/x86_64-linux-gnu/libc.so.6
__nanosleep@GLIBC_2.2.6                           /lib/x86_64-linux-gnu/libpthread.so.0
__open                                            /lib/x86_64-linux-gnu/libpthread.so.0
__open64                                          /lib/x86_64-linux-gnu/libpthread.so.0
__open64@@GLIBC_2.2.5                             /lib/x86_64-linux-gnu/libpthread.so.0
                                                  /lib/x86_64-linux-gnu/libc.so.6
__open64@GLIBC_2.2.5                              /lib/x86_64-linux-gnu/libpthread.so.0
__open@@GLIBC_2.2.5                               /lib/x86_64-linux-gnu/libpthread.so.0
                                                  /lib/x86_64-linux-gnu/libc.so.6
__open@GLIBC_2.2.5                                /lib/x86_64-linux-gnu/libpthread.so.0
__poll                                            /lib/x86_64-linux-gnu/libc.so.6
__poll@@GLIBC_2.2.5                               /lib/x86_64-linux-gnu/libc.so.6
__poll@GLIBC_2.2.5                                /lib/x86_64-linux-gnu/libc.so.6
__pread64                                         /lib/x86_64-linux-gnu/libpthread.so.0
__pread64@@GLIBC_2.2.5                            /lib/x86_64-linux-gnu/libpthread.so.0
                                                  /lib/x86_64-linux-gnu/libc.so.6
__pread64@GLIBC_2.2.5                             /lib/x86_64-linux-gnu/libpthread.so.0
__printf_chk                                      /lib/x86_64-linux-gnu/libc.so.6
                                                  /root/hpc/x86_64-native-linuxapp-gcc/lib/librte_cfgfile.a(rte_cfgfile.o)
                                                  /root/hpc/x86_64-native-linuxapp-gcc/lib/librte_cmdline.a(cmdline_parse.o)
                                                  /root/hpc/x86_64-native-linuxapp-gcc/lib/librte_eal.a(eal_common_options.o)
                                                  /root/hpc/x86_64-native-linuxapp-gcc/lib/librte_eal.a(eal.o)
                                                  /root/hpc/x86_64-native-linuxapp-gcc/lib/librte_mempool.a(rte_mempool.o)
__printf_chk@@GLIBC_2.3.4                         /lib/x86_64-linux-gnu/libc.so.6
__printf_chk@GLIBC_2.3.4                          /lib/x86_64-linux-gnu/libc.so.6
__pwrite64                                        /lib/x86_64-linux-gnu/libpthread.so.0
__pwrite64@@GLIBC_2.2.5                           /lib/x86_64-linux-gnu/libpthread.so.0
                                                  /lib/x86_64-linux-gnu/libc.so.6
__pwrite64@GLIBC_2.2.5                            /lib/x86_64-linux-gnu/libpthread.so.0
__read                                            /lib/x86_64-linux-gnu/libpthread.so.0
__read@@GLIBC_2.2.5                               /lib/x86_64-linux-gnu/libpthread.so.0
                                                  /lib/x86_64-linux-gnu/libc.so.6
__read@GLIBC_2.2.5                                /lib/x86_64-linux-gnu/libpthread.so.0
__realloc_hook                                    /lib/x86_64-linux-gnu/libc.so.6
__realloc_hook@@GLIBC_2.2.5                       /lib/x86_64-linux-gnu/libc.so.6
__realloc_hook@GLIBC_2.2.5                        /lib/x86_64-linux-gnu/libc.so.6
__rte_panic                                       /root/hpc/x86_64-native-linuxapp-gcc/lib/librte_eal.a(eal_debug.o)
                                                  /root/hpc/x86_64-native-linuxapp-gcc/lib/librte_eal.a(eal_timer.o)
                                                  /root/hpc/x86_64-native-linuxapp-gcc/lib/librte_eal.a(eal_lcore.o)
                                                  /root/hpc/x86_64-native-linuxapp-gcc/lib/librte_eal.a(eal_thread.o)
                                                  /root/hpc/x86_64-native-linuxapp-gcc/lib/librte_eal.a(eal_hugepage_info.o)
                                                  /root/hpc/x86_64-native-linuxapp-gcc/lib/librte_eal.a(eal.o)
                                                  /root/hpc/x86_64-native-linuxapp-gcc/lib/librte_ring.a(rte_ring.o)
                                                  /root/hpc/x86_64-native-linuxapp-gcc/lib/librte_mempool.a(rte_mempool.o)
                                                  /root/hpc/x86_64-native-linuxapp-gcc/lib/librte_malloc.a(rte_malloc.o)
                                                  /root/hpc/x86_64-native-linuxapp-gcc/lib/librte_mbuf.a(rte_mbuf.o)
                                                  main.o
__secure_getenv@GLIBC_2.2.5                       /lib/x86_64-linux-gnu/libc.so.6
__send                                            /lib/x86_64-linux-gnu/libpthread.so.0
__send@@GLIBC_2.2.5                               /lib/x86_64-linux-gnu/libpthread.so.0
                                                  /lib/x86_64-linux-gnu/libc.so.6
__send@GLIBC_2.2.5                                /lib/x86_64-linux-gnu/libpthread.so.0
__snprintf_chk                                    /lib/x86_64-linux-gnu/libc.so.6
                                                  /root/hpc/x86_64-native-linuxapp-gcc/lib/librte_cmdline.a(cmdline_parse_portlist.o)
                                                  /root/hpc/x86_64-native-linuxapp-gcc/lib/librte_cmdline.a(cmdline_parse_ipaddr.o)
                                                  /root/hpc/x86_64-native-linuxapp-gcc/lib/librte_cmdline.a(cmdline_parse_etheraddr.o)
                                                  /root/hpc/x86_64-native-linuxapp-gcc/lib/librte_cmdline.a(cmdline_parse.o)
                                                  /root/hpc/x86_64-native-linuxapp-gcc/lib/librte_eal.a(eal_common_thread.o)
                                                  /root/hpc/x86_64-native-linuxapp-gcc/lib/librte_eal.a(eal_common_options.o)
                                                  /root/hpc/x86_64-native-linuxapp-gcc/lib/librte_eal.a(eal_common_hexdump.o)
                                                  /root/hpc/x86_64-native-linuxapp-gcc/lib/librte_eal.a(eal_common_errno.o)
                                                  /root/hpc/x86_64-native-linuxapp-gcc/lib/librte_eal.a(eal_lcore.o)
                                                  /root/hpc/x86_64-native-linuxapp-gcc/lib/librte_eal.a(eal_memory.o)
                                                  /root/hpc/x86_64-native-linuxapp-gcc/lib/librte_eal.a(eal_hugepage_info.o)
                                                  /root/hpc/x86_64-native-linuxapp-gcc/lib/librte_eal.a(eal.o)
                                                  /root/hpc/x86_64-native-linuxapp-gcc/lib/librte_ring.a(rte_ring.o)
                                                  /root/hpc/x86_64-native-linuxapp-gcc/lib/librte_mempool.a(rte_mempool.o)
                                                  /root/hpc/x86_64-native-linuxapp-gcc/lib/librte_malloc.a(malloc_heap.o)
                                                  commands.o
__snprintf_chk@@GLIBC_2.3.4                       /lib/x86_64-linux-gnu/libc.so.6
__snprintf_chk@GLIBC_2.3.4                        /lib/x86_64-linux-gnu/libc.so.6
__stack_chk_fail                                  /lib/x86_64-linux-gnu/libc.so.6
                                                  /root/hpc/x86_64-native-linuxapp-gcc/lib/librte_cfgfile.a(rte_cfgfile.o)
                                                  /root/hpc/x86_64-native-linuxapp-gcc/lib/librte_cmdline.a(cmdline_parse_portlist.o)
                                                  /root/hpc/x86_64-native-linuxapp-gcc/lib/librte_cmdline.a(cmdline_socket.o)
                                                  /root/hpc/x86_64-native-linuxapp-gcc/lib/librte_cmdline.a(cmdline_rdline.o)
                                                  /root/hpc/x86_64-native-linuxapp-gcc/lib/librte_cmdline.a(cmdline_parse_ipaddr.o)
                                                  /root/hpc/x86_64-native-linuxapp-gcc/lib/librte_cmdline.a(cmdline_parse_etheraddr.o)
                                                  /root/hpc/x86_64-native-linuxapp-gcc/lib/librte_cmdline.a(cmdline_parse.o)
                                                  /root/hpc/x86_64-native-linuxapp-gcc/lib/librte_eal.a(eal_common_hexdump.o)
                                                  /root/hpc/x86_64-native-linuxapp-gcc/lib/librte_eal.a(eal_timer.o)
                                                  /root/hpc/x86_64-native-linuxapp-gcc/lib/librte_eal.a(eal_lcore.o)
                                                  /root/hpc/x86_64-native-linuxapp-gcc/lib/librte_eal.a(eal_log.o)
                                                  /root/hpc/x86_64-native-linuxapp-gcc/lib/librte_eal.a(eal_memory.o)
                                                  /root/hpc/x86_64-native-linuxapp-gcc/lib/librte_eal.a(eal_hugepage_info.o)
                                                  /root/hpc/x86_64-native-linuxapp-gcc/lib/librte_eal.a(eal.o)
                                                  /root/hpc/x86_64-native-linuxapp-gcc/lib/librte_ring.a(rte_ring.o)
                                                  /root/hpc/x86_64-native-linuxapp-gcc/lib/librte_mempool.a(rte_mempool.o)
                                                  /root/hpc/x86_64-native-linuxapp-gcc/lib/librte_malloc.a(malloc_heap.o)
                                                  commands.o
__stack_chk_fail@@GLIBC_2.4                       /lib/x86_64-linux-gnu/libc.so.6
__stack_chk_fail@GLIBC_2.4                        /lib/x86_64-linux-gnu/libc.so.6
__strdup                                          /lib/x86_64-linux-gnu/libc.so.6
                                                  /root/hpc/x86_64-native-linuxapp-gcc/lib/librte_eal.a(eal_common_devargs.o)
                                                  /root/hpc/x86_64-native-linuxapp-gcc/lib/librte_eal.a(eal_hugepage_info.o)
                                                  /root/hpc/x86_64-native-linuxapp-gcc/lib/librte_eal.a(eal.o)
__strdup@@GLIBC_2.2.5                             /lib/x86_64-linux-gnu/libc.so.6
__strdup@GLIBC_2.2.5                              /lib/x86_64-linux-gnu/libc.so.6
__strtoll_l                                       /lib/x86_64-linux-gnu/libc.so.6
__strtoll_l@@GLIBC_2.2.5                          /lib/x86_64-linux-gnu/libc.so.6
__strtoll_l@GLIBC_2.2.5                           /lib/x86_64-linux-gnu/libc.so.6
__strtoull_l                                      /lib/x86_64-linux-gnu/libc.so.6
__strtoull_l@@GLIBC_2.2.5                         /lib/x86_64-linux-gnu/libc.so.6
__strtoull_l@GLIBC_2.2.5                          /lib/x86_64-linux-gnu/libc.so.6
__syslog_chk                                      /lib/x86_64-linux-gnu/libc.so.6
                                                  /root/hpc/x86_64-native-linuxapp-gcc/lib/librte_eal.a(eal_log.o)
__syslog_chk@@GLIBC_2.4                           /lib/x86_64-linux-gnu/libc.so.6
__syslog_chk@GLIBC_2.4                            /lib/x86_64-linux-gnu/libc.so.6
__toascii_l                                       /lib/x86_64-linux-gnu/libc.so.6
__toascii_l@@GLIBC_2.2.5                          /lib/x86_64-linux-gnu/libc.so.6
__toascii_l@GLIBC_2.2.5                           /lib/x86_64-linux-gnu/libc.so.6
__vdprintf_chk                                    /lib/x86_64-linux-gnu/libc.so.6
                                                  /root/hpc/x86_64-native-linuxapp-gcc/lib/librte_cmdline.a(cmdline.o)
__vdprintf_chk@@GLIBC_2.8                         /lib/x86_64-linux-gnu/libc.so.6
__vdprintf_chk@GLIBC_2.8                          /lib/x86_64-linux-gnu/libc.so.6
__vfprintf_chk                                    /lib/x86_64-linux-gnu/libc.so.6
                                                  /root/hpc/x86_64-native-linuxapp-gcc/lib/librte_eal.a(eal_common_log.o)
__vfprintf_chk@@GLIBC_2.3.4                       /lib/x86_64-linux-gnu/libc.so.6
__vfprintf_chk@GLIBC_2.3.4                        /lib/x86_64-linux-gnu/libc.so.6
__vsnprintf                                       /lib/x86_64-linux-gnu/libc.so.6
__vsnprintf@@GLIBC_2.2.5                          /lib/x86_64-linux-gnu/libc.so.6
__vsnprintf@GLIBC_2.2.5                           /lib/x86_64-linux-gnu/libc.so.6
__vsscanf                                         /lib/x86_64-linux-gnu/libc.so.6
__vsscanf@@GLIBC_2.2.5                            /lib/x86_64-linux-gnu/libc.so.6
__vsscanf@GLIBC_2.2.5                             /lib/x86_64-linux-gnu/libc.so.6
__wait                                            /lib/x86_64-linux-gnu/libpthread.so.0
__wait@@GLIBC_2.2.5                               /lib/x86_64-linux-gnu/libpthread.so.0
                                                  /lib/x86_64-linux-gnu/libc.so.6
__wait@GLIBC_2.2.5                                /lib/x86_64-linux-gnu/libpthread.so.0
__waitpid                                         /lib/x86_64-linux-gnu/libc.so.6
__waitpid@@GLIBC_2.2.5                            /lib/x86_64-linux-gnu/libc.so.6
__waitpid@GLIBC_2.2.5                             /lib/x86_64-linux-gnu/libc.so.6
__wcstoll_l                                       /lib/x86_64-linux-gnu/libc.so.6
__wcstoll_l@@GLIBC_2.2.5                          /lib/x86_64-linux-gnu/libc.so.6
__wcstoll_l@GLIBC_2.2.5                           /lib/x86_64-linux-gnu/libc.so.6
__wcstoull_l                                      /lib/x86_64-linux-gnu/libc.so.6
__wcstoull_l@@GLIBC_2.2.5                         /lib/x86_64-linux-gnu/libc.so.6
__wcstoull_l@GLIBC_2.2.5                          /lib/x86_64-linux-gnu/libc.so.6
__write                                           /lib/x86_64-linux-gnu/libpthread.so.0
__write@@GLIBC_2.2.5                              /lib/x86_64-linux-gnu/libpthread.so.0
                                                  /lib/x86_64-linux-gnu/libc.so.6
__write@GLIBC_2.2.5                               /lib/x86_64-linux-gnu/libpthread.so.0
__xpg_sigpause                                    /lib/x86_64-linux-gnu/libc.so.6
__xpg_sigpause@@GLIBC_2.2.5                       /lib/x86_64-linux-gnu/libc.so.6
__xpg_sigpause@GLIBC_2.2.5                        /lib/x86_64-linux-gnu/libc.so.6
__xpg_strerror_r                                  /lib/x86_64-linux-gnu/libc.so.6
                                                  /root/hpc/x86_64-native-linuxapp-gcc/lib/librte_eal.a(eal_common_errno.o)
__xpg_strerror_r@@GLIBC_2.3.4                     /lib/x86_64-linux-gnu/libc.so.6
__xpg_strerror_r@GLIBC_2.3.4                      /lib/x86_64-linux-gnu/libc.so.6
_dl_starting_up                                   /lib/x86_64-linux-gnu/libc.so.6
_environ                                          /lib/x86_64-linux-gnu/libc.so.6
_environ@@GLIBC_2.2.5                             /lib/x86_64-linux-gnu/libc.so.6
_environ@GLIBC_2.2.5                              /lib/x86_64-linux-gnu/libc.so.6
                                                  /usr/lib/gcc/x86_64-linux-gnu/4.8/../../../x86_64-linux-gnu/libdl.so
_fini                                             /usr/lib/gcc/x86_64-linux-gnu/4.8/../../../x86_64-linux-gnu/crti.o
_flushlbf                                         /lib/x86_64-linux-gnu/libc.so.6
_flushlbf@@GLIBC_2.2.5                            /lib/x86_64-linux-gnu/libc.so.6
_flushlbf@GLIBC_2.2.5                             /lib/x86_64-linux-gnu/libc.so.6
_init                                             /usr/lib/gcc/x86_64-linux-gnu/4.8/../../../x86_64-linux-gnu/crti.o
                                                  /usr/lib/x86_64-linux-gnu/libc_nonshared.a(elf-init.oS)
_longjmp                                          /lib/x86_64-linux-gnu/libc.so.6
_longjmp@@GLIBC_2.2.5                             /lib/x86_64-linux-gnu/libc.so.6
_longjmp@GLIBC_2.2.5                              /lib/x86_64-linux-gnu/libc.so.6
_start                                            /usr/lib/gcc/x86_64-linux-gnu/4.8/../../../x86_64-linux-gnu/crt1.o
abort                                             /lib/x86_64-linux-gnu/libc.so.6
                                                  /root/hpc/x86_64-native-linuxapp-gcc/lib/librte_eal.a(eal_debug.o)
abort@@GLIBC_2.2.5                                /lib/x86_64-linux-gnu/libc.so.6
abort@GLIBC_2.2.5                                 /lib/x86_64-linux-gnu/libc.so.6
                                                  /lib/x86_64-linux-gnu/libpthread.so.0
accept                                            /lib/x86_64-linux-gnu/libpthread.so.0
accept@@GLIBC_2.2.5                               /lib/x86_64-linux-gnu/libpthread.so.0
                                                  /lib/x86_64-linux-gnu/libc.so.6
accept@GLIBC_2.2.5                                /lib/x86_64-linux-gnu/libpthread.so.0
access                                            /lib/x86_64-linux-gnu/libc.so.6
                                                  /root/hpc/x86_64-native-linuxapp-gcc/lib/librte_eal.a(eal_lcore.o)
access@@GLIBC_2.2.5                               /lib/x86_64-linux-gnu/libc.so.6
access@GLIBC_2.2.5                                /lib/x86_64-linux-gnu/libc.so.6
acos                                              /usr/lib/gcc/x86_64-linux-gnu/4.8/../../../x86_64-linux-gnu/libm.so
acos@@GLIBC_2.2.5                                 /usr/lib/gcc/x86_64-linux-gnu/4.8/../../../x86_64-linux-gnu/libm.so
acos@GLIBC_2.2.5                                  /usr/lib/gcc/x86_64-linux-gnu/4.8/../../../x86_64-linux-gnu/libm.so
acosf                                             /usr/lib/gcc/x86_64-linux-gnu/4.8/../../../x86_64-linux-gnu/libm.so
acosf@@GLIBC_2.2.5                                /usr/lib/gcc/x86_64-linux-gnu/4.8/../../../x86_64-linux-gnu/libm.so
acosf@GLIBC_2.2.5                                 /usr/lib/gcc/x86_64-linux-gnu/4.8/../../../x86_64-linux-gnu/libm.so
acosh                                             /usr/lib/gcc/x86_64-linux-gnu/4.8/../../../x86_64-linux-gnu/libm.so
acosh@@GLIBC_2.2.5                                /usr/lib/gcc/x86_64-linux-gnu/4.8/../../../x86_64-linux-gnu/libm.so
acosh@GLIBC_2.2.5                                 /usr/lib/gcc/x86_64-linux-gnu/4.8/../../../x86_64-linux-gnu/libm.so
acoshf                                            /usr/lib/gcc/x86_64-linux-gnu/4.8/../../../x86_64-linux-gnu/libm.so
acoshf@@GLIBC_2.2.5                               /usr/lib/gcc/x86_64-linux-gnu/4.8/../../../x86_64-linux-gnu/libm.so
acoshf@GLIBC_2.2.5                                /usr/lib/gcc/x86_64-linux-gnu/4.8/../../../x86_64-linux-gnu/libm.so
acoshl                                            /usr/lib/gcc/x86_64-linux-gnu/4.8/../../../x86_64-linux-gnu/libm.so
acoshl@@GLIBC_2.2.5                               /usr/lib/gcc/x86_64-linux-gnu/4.8/../../../x86_64-linux-gnu/libm.so
acoshl@GLIBC_2.2.5                                /usr/lib/gcc/x86_64-linux-gnu/4.8/../../../x86_64-linux-gnu/libm.so
acosl                                             /usr/lib/gcc/x86_64-linux-gnu/4.8/../../../x86_64-linux-gnu/libm.so
acosl@@GLIBC_2.2.5                                /usr/lib/gcc/x86_64-linux-gnu/4.8/../../../x86_64-linux-gnu/libm.so
acosl@GLIBC_2.2.5                                 /usr/lib/gcc/x86_64-linux-gnu/4.8/../../../x86_64-linux-gnu/libm.so
addmntent                                         /lib/x86_64-linux-gnu/libc.so.6
addmntent@@GLIBC_2.2.5                            /lib/x86_64-linux-gnu/libc.so.6
addmntent@GLIBC_2.2.5                             /lib/x86_64-linux-gnu/libc.so.6
adjtime                                           /lib/x86_64-linux-gnu/libc.so.6
adjtime@@GLIBC_2.2.5                              /lib/x86_64-linux-gnu/libc.so.6
adjtime@GLIBC_2.2.5                               /lib/x86_64-linux-gnu/libc.so.6
adjtimex                                          /lib/x86_64-linux-gnu/libc.so.6
adjtimex@@GLIBC_2.2.5                             /lib/x86_64-linux-gnu/libc.so.6
adjtimex@GLIBC_2.2.5                              /lib/x86_64-linux-gnu/libc.so.6
advance                                           /lib/x86_64-linux-gnu/libc.so.6
advance@@GLIBC_2.2.5                              /lib/x86_64-linux-gnu/libc.so.6
advance@GLIBC_2.2.5                               /lib/x86_64-linux-gnu/libc.so.6
aio_cancel64                                      /usr/lib/gcc/x86_64-linux-gnu/4.8/../../../x86_64-linux-gnu/librt.so
aio_cancel64@@GLIBC_2.2.5                         /usr/lib/gcc/x86_64-linux-gnu/4.8/../../../x86_64-linux-gnu/librt.so
aio_cancel64@GLIBC_2.2.5                          /usr/lib/gcc/x86_64-linux-gnu/4.8/../../../x86_64-linux-gnu/librt.so
aio_error64                                       /usr/lib/gcc/x86_64-linux-gnu/4.8/../../../x86_64-linux-gnu/librt.so
aio_error64@@GLIBC_2.2.5                          /usr/lib/gcc/x86_64-linux-gnu/4.8/../../../x86_64-linux-gnu/librt.so
aio_error64@GLIBC_2.2.5                           /usr/lib/gcc/x86_64-linux-gnu/4.8/../../../x86_64-linux-gnu/librt.so
aio_fsync64                                       /usr/lib/gcc/x86_64-linux-gnu/4.8/../../../x86_64-linux-gnu/librt.so
aio_fsync64@@GLIBC_2.2.5                          /usr/lib/gcc/x86_64-linux-gnu/4.8/../../../x86_64-linux-gnu/librt.so
aio_fsync64@GLIBC_2.2.5                           /usr/lib/gcc/x86_64-linux-gnu/4.8/../../../x86_64-linux-gnu/librt.so
aio_init                                          /usr/lib/gcc/x86_64-linux-gnu/4.8/../../../x86_64-linux-gnu/librt.so
aio_init@@GLIBC_2.2.5                             /usr/lib/gcc/x86_64-linux-gnu/4.8/../../../x86_64-linux-gnu/librt.so
aio_init@GLIBC_2.2.5                              /usr/lib/gcc/x86_64-linux-gnu/4.8/../../../x86_64-linux-gnu/librt.so
aio_read64                                        /usr/lib/gcc/x86_64-linux-gnu/4.8/../../../x86_64-linux-gnu/librt.so
aio_read64@@GLIBC_2.2.5                           /usr/lib/gcc/x86_64-linux-gnu/4.8/../../../x86_64-linux-gnu/librt.so
aio_read64@GLIBC_2.2.5                            /usr/lib/gcc/x86_64-linux-gnu/4.8/../../../x86_64-linux-gnu/librt.so
aio_return64                                      /usr/lib/gcc/x86_64-linux-gnu/4.8/../../../x86_64-linux-gnu/librt.so
aio_return64@@GLIBC_2.2.5                         /usr/lib/gcc/x86_64-linux-gnu/4.8/../../../x86_64-linux-gnu/librt.so
aio_return64@GLIBC_2.2.5                          /usr/lib/gcc/x86_64-linux-gnu/4.8/../../../x86_64-linux-gnu/librt.so
aio_suspend64                                     /usr/lib/gcc/x86_64-linux-gnu/4.8/../../../x86_64-linux-gnu/librt.so
aio_suspend64@@GLIBC_2.2.5                        /usr/lib/gcc/x86_64-linux-gnu/4.8/../../../x86_64-linux-gnu/librt.so
aio_suspend64@GLIBC_2.2.5                         /usr/lib/gcc/x86_64-linux-gnu/4.8/../../../x86_64-linux-gnu/librt.so
aio_write64                                       /usr/lib/gcc/x86_64-linux-gnu/4.8/../../../x86_64-linux-gnu/librt.so
aio_write64@@GLIBC_2.2.5                          /usr/lib/gcc/x86_64-linux-gnu/4.8/../../../x86_64-linux-gnu/librt.so
aio_write64@GLIBC_2.2.5                           /usr/lib/gcc/x86_64-linux-gnu/4.8/../../../x86_64-linux-gnu/librt.so
aligned_alloc                                     /lib/x86_64-linux-gnu/libc.so.6
aligned_alloc@@GLIBC_2.16                         /lib/x86_64-linux-gnu/libc.so.6
aligned_alloc@GLIBC_2.16                          /lib/x86_64-linux-gnu/libc.so.6
alphasort64                                       /lib/x86_64-linux-gnu/libc.so.6
alphasort64@@GLIBC_2.2.5                          /lib/x86_64-linux-gnu/libc.so.6
alphasort64@GLIBC_2.2.5                           /lib/x86_64-linux-gnu/libc.so.6
arch_prctl                                        /lib/x86_64-linux-gnu/libc.so.6
arch_prctl@@GLIBC_2.2.5                           /lib/x86_64-linux-gnu/libc.so.6
arch_prctl@GLIBC_2.2.5                            /lib/x86_64-linux-gnu/libc.so.6
argp_error                                        /lib/x86_64-linux-gnu/libc.so.6
argp_error@@GLIBC_2.2.5                           /lib/x86_64-linux-gnu/libc.so.6
argp_error@GLIBC_2.2.5                            /lib/x86_64-linux-gnu/libc.so.6
argp_failure                                      /lib/x86_64-linux-gnu/libc.so.6
argp_failure@@GLIBC_2.2.5                         /lib/x86_64-linux-gnu/libc.so.6
argp_failure@GLIBC_2.2.5                          /lib/x86_64-linux-gnu/libc.so.6
argp_help                                         /lib/x86_64-linux-gnu/libc.so.6
argp_help@@GLIBC_2.2.5                            /lib/x86_64-linux-gnu/libc.so.6
argp_help@GLIBC_2.2.5                             /lib/x86_64-linux-gnu/libc.so.6
argp_parse                                        /lib/x86_64-linux-gnu/libc.so.6
argp_parse@@GLIBC_2.2.5                           /lib/x86_64-linux-gnu/libc.so.6
argp_parse@GLIBC_2.2.5                            /lib/x86_64-linux-gnu/libc.so.6
argp_state_help                                   /lib/x86_64-linux-gnu/libc.so.6
argp_state_help@@GLIBC_2.2.5                      /lib/x86_64-linux-gnu/libc.so.6
argp_state_help@GLIBC_2.2.5                       /lib/x86_64-linux-gnu/libc.so.6
argp_usage                                        /lib/x86_64-linux-gnu/libc.so.6
argp_usage@@GLIBC_2.2.5                           /lib/x86_64-linux-gnu/libc.so.6
argp_usage@GLIBC_2.2.5                            /lib/x86_64-linux-gnu/libc.so.6
argz_add                                          /lib/x86_64-linux-gnu/libc.so.6
argz_add@@GLIBC_2.2.5                             /lib/x86_64-linux-gnu/libc.so.6
argz_add@GLIBC_2.2.5                              /lib/x86_64-linux-gnu/libc.so.6
argz_add_sep                                      /lib/x86_64-linux-gnu/libc.so.6
argz_add_sep@@GLIBC_2.2.5                         /lib/x86_64-linux-gnu/libc.so.6
argz_add_sep@GLIBC_2.2.5                          /lib/x86_64-linux-gnu/libc.so.6
argz_append                                       /lib/x86_64-linux-gnu/libc.so.6
argz_append@@GLIBC_2.2.5                          /lib/x86_64-linux-gnu/libc.so.6
argz_append@GLIBC_2.2.5                           /lib/x86_64-linux-gnu/libc.so.6
argz_count                                        /lib/x86_64-linux-gnu/libc.so.6
argz_count@@GLIBC_2.2.5                           /lib/x86_64-linux-gnu/libc.so.6
argz_count@GLIBC_2.2.5                            /lib/x86_64-linux-gnu/libc.so.6
argz_create                                       /lib/x86_64-linux-gnu/libc.so.6
argz_create@@GLIBC_2.2.5                          /lib/x86_64-linux-gnu/libc.so.6
argz_create@GLIBC_2.2.5                           /lib/x86_64-linux-gnu/libc.so.6
argz_create_sep                                   /lib/x86_64-linux-gnu/libc.so.6
argz_create_sep@@GLIBC_2.2.5                      /lib/x86_64-linux-gnu/libc.so.6
argz_create_sep@GLIBC_2.2.5                       /lib/x86_64-linux-gnu/libc.so.6
argz_extract                                      /lib/x86_64-linux-gnu/libc.so.6
argz_extract@@GLIBC_2.2.5                         /lib/x86_64-linux-gnu/libc.so.6
argz_extract@GLIBC_2.2.5                          /lib/x86_64-linux-gnu/libc.so.6
argz_insert                                       /lib/x86_64-linux-gnu/libc.so.6
argz_insert@@GLIBC_2.2.5                          /lib/x86_64-linux-gnu/libc.so.6
argz_insert@GLIBC_2.2.5                           /lib/x86_64-linux-gnu/libc.so.6
argz_next                                         /lib/x86_64-linux-gnu/libc.so.6
argz_next@@GLIBC_2.2.5                            /lib/x86_64-linux-gnu/libc.so.6
argz_next@GLIBC_2.2.5                             /lib/x86_64-linux-gnu/libc.so.6
argz_replace                                      /lib/x86_64-linux-gnu/libc.so.6
argz_replace@@GLIBC_2.2.5                         /lib/x86_64-linux-gnu/libc.so.6
argz_replace@GLIBC_2.2.5                          /lib/x86_64-linux-gnu/libc.so.6
argz_stringify                                    /lib/x86_64-linux-gnu/libc.so.6
argz_stringify@@GLIBC_2.2.5                       /lib/x86_64-linux-gnu/libc.so.6
argz_stringify@GLIBC_2.2.5                        /lib/x86_64-linux-gnu/libc.so.6
asctime_r                                         /lib/x86_64-linux-gnu/libc.so.6
asctime_r@@GLIBC_2.2.5                            /lib/x86_64-linux-gnu/libc.so.6
asctime_r@GLIBC_2.2.5                             /lib/x86_64-linux-gnu/libc.so.6
asin                                              /usr/lib/gcc/x86_64-linux-gnu/4.8/../../../x86_64-linux-gnu/libm.so
asin@@GLIBC_2.2.5                                 /usr/lib/gcc/x86_64-linux-gnu/4.8/../../../x86_64-linux-gnu/libm.so
asin@GLIBC_2.2.5                                  /usr/lib/gcc/x86_64-linux-gnu/4.8/../../../x86_64-linux-gnu/libm.so
asinf                                             /usr/lib/gcc/x86_64-linux-gnu/4.8/../../../x86_64-linux-gnu/libm.so
asinf@@GLIBC_2.2.5                                /usr/lib/gcc/x86_64-linux-gnu/4.8/../../../x86_64-linux-gnu/libm.so
asinf@GLIBC_2.2.5                                 /usr/lib/gcc/x86_64-linux-gnu/4.8/../../../x86_64-linux-gnu/libm.so
asinh                                             /usr/lib/gcc/x86_64-linux-gnu/4.8/../../../x86_64-linux-gnu/libm.so
asinh@@GLIBC_2.2.5                                /usr/lib/gcc/x86_64-linux-gnu/4.8/../../../x86_64-linux-gnu/libm.so
asinh@GLIBC_2.2.5                                 /usr/lib/gcc/x86_64-linux-gnu/4.8/../../../x86_64-linux-gnu/libm.so
asinhf                                            /usr/lib/gcc/x86_64-linux-gnu/4.8/../../../x86_64-linux-gnu/libm.so
asinhf@@GLIBC_2.2.5                               /usr/lib/gcc/x86_64-linux-gnu/4.8/../../../x86_64-linux-gnu/libm.so
asinhf@GLIBC_2.2.5                                /usr/lib/gcc/x86_64-linux-gnu/4.8/../../../x86_64-linux-gnu/libm.so
asinhl                                            /usr/lib/gcc/x86_64-linux-gnu/4.8/../../../x86_64-linux-gnu/libm.so
asinhl@@GLIBC_2.2.5                               /usr/lib/gcc/x86_64-linux-gnu/4.8/../../../x86_64-linux-gnu/libm.so
asinhl@GLIBC_2.2.5                                /usr/lib/gcc/x86_64-linux-gnu/4.8/../../../x86_64-linux-gnu/libm.so
asinl                                             /usr/lib/gcc/x86_64-linux-gnu/4.8/../../../x86_64-linux-gnu/libm.so
asinl@@GLIBC_2.2.5                                /usr/lib/gcc/x86_64-linux-gnu/4.8/../../../x86_64-linux-gnu/libm.so
asinl@GLIBC_2.2.5                                 /usr/lib/gcc/x86_64-linux-gnu/4.8/../../../x86_64-linux-gnu/libm.so
asprintf                                          /lib/x86_64-linux-gnu/libc.so.6
asprintf@@GLIBC_2.2.5                             /lib/x86_64-linux-gnu/libc.so.6
asprintf@GLIBC_2.2.5                              /lib/x86_64-linux-gnu/libc.so.6
atan2                                             /usr/lib/gcc/x86_64-linux-gnu/4.8/../../../x86_64-linux-gnu/libm.so
atan2@@GLIBC_2.2.5                                /usr/lib/gcc/x86_64-linux-gnu/4.8/../../../x86_64-linux-gnu/libm.so
atan2@GLIBC_2.2.5                                 /usr/lib/gcc/x86_64-linux-gnu/4.8/../../../x86_64-linux-gnu/libm.so
atan2f                                            /usr/lib/gcc/x86_64-linux-gnu/4.8/../../../x86_64-linux-gnu/libm.so
atan2f@@GLIBC_2.2.5                               /usr/lib/gcc/x86_64-linux-gnu/4.8/../../../x86_64-linux-gnu/libm.so
atan2f@GLIBC_2.2.5                                /usr/lib/gcc/x86_64-linux-gnu/4.8/../../../x86_64-linux-gnu/libm.so
atan2l                                            /usr/lib/gcc/x86_64-linux-gnu/4.8/../../../x86_64-linux-gnu/libm.so
atan2l@@GLIBC_2.2.5                               /usr/lib/gcc/x86_64-linux-gnu/4.8/../../../x86_64-linux-gnu/libm.so
atan2l@GLIBC_2.2.5                                /usr/lib/gcc/x86_64-linux-gnu/4.8/../../../x86_64-linux-gnu/libm.so
atanf                                             /usr/lib/gcc/x86_64-linux-gnu/4.8/../../../x86_64-linux-gnu/libm.so
atanf@@GLIBC_2.2.5                                /usr/lib/gcc/x86_64-linux-gnu/4.8/../../../x86_64-linux-gnu/libm.so
atanf@GLIBC_2.2.5                                 /usr/lib/gcc/x86_64-linux-gnu/4.8/../../../x86_64-linux-gnu/libm.so
atanh                                             /usr/lib/gcc/x86_64-linux-gnu/4.8/../../../x86_64-linux-gnu/libm.so
atanh@@GLIBC_2.2.5                                /usr/lib/gcc/x86_64-linux-gnu/4.8/../../../x86_64-linux-gnu/libm.so
atanh@GLIBC_2.2.5                                 /usr/lib/gcc/x86_64-linux-gnu/4.8/../../../x86_64-linux-gnu/libm.so
atanhf                                            /usr/lib/gcc/x86_64-linux-gnu/4.8/../../../x86_64-linux-gnu/libm.so
atanhf@@GLIBC_2.2.5                               /usr/lib/gcc/x86_64-linux-gnu/4.8/../../../x86_64-linux-gnu/libm.so
atanhf@GLIBC_2.2.5                                /usr/lib/gcc/x86_64-linux-gnu/4.8/../../../x86_64-linux-gnu/libm.so
atanhl                                            /usr/lib/gcc/x86_64-linux-gnu/4.8/../../../x86_64-linux-gnu/libm.so
atanhl@@GLIBC_2.2.5                               /usr/lib/gcc/x86_64-linux-gnu/4.8/../../../x86_64-linux-gnu/libm.so
atanhl@GLIBC_2.2.5                                /usr/lib/gcc/x86_64-linux-gnu/4.8/../../../x86_64-linux-gnu/libm.so
atanl                                             /usr/lib/gcc/x86_64-linux-gnu/4.8/../../../x86_64-linux-gnu/libm.so
atanl@@GLIBC_2.2.5                                /usr/lib/gcc/x86_64-linux-gnu/4.8/../../../x86_64-linux-gnu/libm.so
atanl@GLIBC_2.2.5                                 /usr/lib/gcc/x86_64-linux-gnu/4.8/../../../x86_64-linux-gnu/libm.so
backtrace                                         /lib/x86_64-linux-gnu/libc.so.6
                                                  /root/hpc/x86_64-native-linuxapp-gcc/lib/librte_eal.a(eal_debug.o)
backtrace@@GLIBC_2.2.5                            /lib/x86_64-linux-gnu/libc.so.6
backtrace@GLIBC_2.2.5                             /lib/x86_64-linux-gnu/libc.so.6
backtrace_symbols                                 /lib/x86_64-linux-gnu/libc.so.6
                                                  /root/hpc/x86_64-native-linuxapp-gcc/lib/librte_eal.a(eal_debug.o)
backtrace_symbols@@GLIBC_2.2.5                    /lib/x86_64-linux-gnu/libc.so.6
backtrace_symbols@GLIBC_2.2.5                     /lib/x86_64-linux-gnu/libc.so.6
backtrace_symbols_fd                              /lib/x86_64-linux-gnu/libc.so.6
backtrace_symbols_fd@@GLIBC_2.2.5                 /lib/x86_64-linux-gnu/libc.so.6
backtrace_symbols_fd@GLIBC_2.2.5                  /lib/x86_64-linux-gnu/libc.so.6
bcmp                                              /lib/x86_64-linux-gnu/libc.so.6
bcmp@@GLIBC_2.2.5                                 /lib/x86_64-linux-gnu/libc.so.6
bcmp@GLIBC_2.2.5                                  /lib/x86_64-linux-gnu/libc.so.6
bdflush                                           /lib/x86_64-linux-gnu/libc.so.6
bdflush@@GLIBC_2.2.5                              /lib/x86_64-linux-gnu/libc.so.6
bdflush@GLIBC_2.2.5                               /lib/x86_64-linux-gnu/libc.so.6
bind                                              /lib/x86_64-linux-gnu/libc.so.6
bind@@GLIBC_2.2.5                                 /lib/x86_64-linux-gnu/libc.so.6
bind@GLIBC_2.2.5                                  /lib/x86_64-linux-gnu/libc.so.6
bind_textdomain_codeset                           /lib/x86_64-linux-gnu/libc.so.6
bind_textdomain_codeset@@GLIBC_2.2.5              /lib/x86_64-linux-gnu/libc.so.6
bind_textdomain_codeset@GLIBC_2.2.5               /lib/x86_64-linux-gnu/libc.so.6
bindtextdomain                                    /lib/x86_64-linux-gnu/libc.so.6
bindtextdomain@@GLIBC_2.2.5                       /lib/x86_64-linux-gnu/libc.so.6
bindtextdomain@GLIBC_2.2.5                        /lib/x86_64-linux-gnu/libc.so.6
brk                                               /lib/x86_64-linux-gnu/libc.so.6
brk@@GLIBC_2.2.5                                  /lib/x86_64-linux-gnu/libc.so.6
brk@GLIBC_2.2.5                                   /lib/x86_64-linux-gnu/libc.so.6
bsd_signal                                        /lib/x86_64-linux-gnu/libc.so.6
bsd_signal@@GLIBC_2.2.5                           /lib/x86_64-linux-gnu/libc.so.6
bsd_signal@GLIBC_2.2.5                            /lib/x86_64-linux-gnu/libc.so.6
btowc                                             /lib/x86_64-linux-gnu/libc.so.6
btowc@@GLIBC_2.2.5                                /lib/x86_64-linux-gnu/libc.so.6
btowc@GLIBC_2.2.5                                 /lib/x86_64-linux-gnu/libc.so.6
bzero                                             /lib/x86_64-linux-gnu/libc.so.6
bzero@@GLIBC_2.2.5                                /lib/x86_64-linux-gnu/libc.so.6
bzero@GLIBC_2.2.5                                 /lib/x86_64-linux-gnu/libc.so.6
c32rtomb                                          /lib/x86_64-linux-gnu/libc.so.6
c32rtomb@@GLIBC_2.16                              /lib/x86_64-linux-gnu/libc.so.6
c32rtomb@GLIBC_2.16                               /lib/x86_64-linux-gnu/libc.so.6
cabs                                              /usr/lib/gcc/x86_64-linux-gnu/4.8/../../../x86_64-linux-gnu/libm.so
cabs@@GLIBC_2.2.5                                 /usr/lib/gcc/x86_64-linux-gnu/4.8/../../../x86_64-linux-gnu/libm.so
cabs@GLIBC_2.2.5                                  /usr/lib/gcc/x86_64-linux-gnu/4.8/../../../x86_64-linux-gnu/libm.so
cabsf                                             /usr/lib/gcc/x86_64-linux-gnu/4.8/../../../x86_64-linux-gnu/libm.so
cabsf@@GLIBC_2.2.5                                /usr/lib/gcc/x86_64-linux-gnu/4.8/../../../x86_64-linux-gnu/libm.so
cabsf@GLIBC_2.2.5                                 /usr/lib/gcc/x86_64-linux-gnu/4.8/../../../x86_64-linux-gnu/libm.so
cabsl                                             /usr/lib/gcc/x86_64-linux-gnu/4.8/../../../x86_64-linux-gnu/libm.so
cabsl@@GLIBC_2.2.5                                /usr/lib/gcc/x86_64-linux-gnu/4.8/../../../x86_64-linux-gnu/libm.so
cabsl@GLIBC_2.2.5                                 /usr/lib/gcc/x86_64-linux-gnu/4.8/../../../x86_64-linux-gnu/libm.so
cacos                                             /usr/lib/gcc/x86_64-linux-gnu/4.8/../../../x86_64-linux-gnu/libm.so
cacos@@GLIBC_2.2.5                                /usr/lib/gcc/x86_64-linux-gnu/4.8/../../../x86_64-linux-gnu/libm.so
cacos@GLIBC_2.2.5                                 /usr/lib/gcc/x86_64-linux-gnu/4.8/../../../x86_64-linux-gnu/libm.so
cacosf                                            /usr/lib/gcc/x86_64-linux-gnu/4.8/../../../x86_64-linux-gnu/libm.so
cacosf@@GLIBC_2.2.5                               /usr/lib/gcc/x86_64-linux-gnu/4.8/../../../x86_64-linux-gnu/libm.so
cacosf@GLIBC_2.2.5                                /usr/lib/gcc/x86_64-linux-gnu/4.8/../../../x86_64-linux-gnu/libm.so
cacosh                                            /usr/lib/gcc/x86_64-linux-gnu/4.8/../../../x86_64-linux-gnu/libm.so
cacosh@@GLIBC_2.2.5                               /usr/lib/gcc/x86_64-linux-gnu/4.8/../../../x86_64-linux-gnu/libm.so
cacosh@GLIBC_2.2.5                                /usr/lib/gcc/x86_64-linux-gnu/4.8/../../../x86_64-linux-gnu/libm.so
cacoshf                                           /usr/lib/gcc/x86_64-linux-gnu/4.8/../../../x86_64-linux-gnu/libm.so
cacoshf@@GLIBC_2.2.5                              /usr/lib/gcc/x86_64-linux-gnu/4.8/../../../x86_64-linux-gnu/libm.so
cacoshf@GLIBC_2.2.5                               /usr/lib/gcc/x86_64-linux-gnu/4.8/../../../x86_64-linux-gnu/libm.so
cacoshl                                           /usr/lib/gcc/x86_64-linux-gnu/4.8/../../../x86_64-linux-gnu/libm.so
cacoshl@@GLIBC_2.2.5                              /usr/lib/gcc/x86_64-linux-gnu/4.8/../../../x86_64-linux-gnu/libm.so
cacoshl@GLIBC_2.2.5                               /usr/lib/gcc/x86_64-linux-gnu/4.8/../../../x86_64-linux-gnu/libm.so
cacosl                                            /usr/lib/gcc/x86_64-linux-gnu/4.8/../../../x86_64-linux-gnu/libm.so
cacosl@@GLIBC_2.2.5                               /usr/lib/gcc/x86_64-linux-gnu/4.8/../../../x86_64-linux-gnu/libm.so
cacosl@GLIBC_2.2.5                                /usr/lib/gcc/x86_64-linux-gnu/4.8/../../../x86_64-linux-gnu/libm.so
calloc                                            /lib/x86_64-linux-gnu/libc.so.6
                                                  /root/hpc/x86_64-native-linuxapp-gcc/lib/librte_eal.a(eal_common_devargs.o)
calloc@@GLIBC_2.2.5                               /lib/x86_64-linux-gnu/libc.so.6
                                                  /lib/x86_64-linux-gnu/ld-linux-x86-64.so.2
calloc@GLIBC_2.2.5                                /lib/x86_64-linux-gnu/libc.so.6
                                                  /lib/x86_64-linux-gnu/libpthread.so.0
                                                  /usr/lib/gcc/x86_64-linux-gnu/4.8/../../../x86_64-linux-gnu/libdl.so
                                                  /usr/lib/gcc/x86_64-linux-gnu/4.8/../../../x86_64-linux-gnu/librt.so
canonicalize_file_name                            /lib/x86_64-linux-gnu/libc.so.6
canonicalize_file_name@@GLIBC_2.2.5               /lib/x86_64-linux-gnu/libc.so.6
canonicalize_file_name@GLIBC_2.2.5                /lib/x86_64-linux-gnu/libc.so.6
carg                                              /usr/lib/gcc/x86_64-linux-gnu/4.8/../../../x86_64-linux-gnu/libm.so
carg@@GLIBC_2.2.5                                 /usr/lib/gcc/x86_64-linux-gnu/4.8/../../../x86_64-linux-gnu/libm.so
carg@GLIBC_2.2.5                                  /usr/lib/gcc/x86_64-linux-gnu/4.8/../../../x86_64-linux-gnu/libm.so
cargf                                             /usr/lib/gcc/x86_64-linux-gnu/4.8/../../../x86_64-linux-gnu/libm.so
cargf@@GLIBC_2.2.5                                /usr/lib/gcc/x86_64-linux-gnu/4.8/../../../x86_64-linux-gnu/libm.so
cargf@GLIBC_2.2.5                                 /usr/lib/gcc/x86_64-linux-gnu/4.8/../../../x86_64-linux-gnu/libm.so
cargl                                             /usr/lib/gcc/x86_64-linux-gnu/4.8/../../../x86_64-linux-gnu/libm.so
cargl@@GLIBC_2.2.5                                /usr/lib/gcc/x86_64-linux-gnu/4.8/../../../x86_64-linux-gnu/libm.so
cargl@GLIBC_2.2.5                                 /usr/lib/gcc/x86_64-linux-gnu/4.8/../../../x86_64-linux-gnu/libm.so
casin                                             /usr/lib/gcc/x86_64-linux-gnu/4.8/../../../x86_64-linux-gnu/libm.so
casin@@GLIBC_2.2.5                                /usr/lib/gcc/x86_64-linux-gnu/4.8/../../../x86_64-linux-gnu/libm.so
casin@GLIBC_2.2.5                                 /usr/lib/gcc/x86_64-linux-gnu/4.8/../../../x86_64-linux-gnu/libm.so
casinf                                            /usr/lib/gcc/x86_64-linux-gnu/4.8/../../../x86_64-linux-gnu/libm.so
casinf@@GLIBC_2.2.5                               /usr/lib/gcc/x86_64-linux-gnu/4.8/../../../x86_64-linux-gnu/libm.so
casinf@GLIBC_2.2.5                                /usr/lib/gcc/x86_64-linux-gnu/4.8/../../../x86_64-linux-gnu/libm.so
casinh                                            /usr/lib/gcc/x86_64-linux-gnu/4.8/../../../x86_64-linux-gnu/libm.so
casinh@@GLIBC_2.2.5                               /usr/lib/gcc/x86_64-linux-gnu/4.8/../../../x86_64-linux-gnu/libm.so
casinh@GLIBC_2.2.5                                /usr/lib/gcc/x86_64-linux-gnu/4.8/../../../x86_64-linux-gnu/libm.so
casinhf                                           /usr/lib/gcc/x86_64-linux-gnu/4.8/../../../x86_64-linux-gnu/libm.so
casinhf@@GLIBC_2.2.5                              /usr/lib/gcc/x86_64-linux-gnu/4.8/../../../x86_64-linux-gnu/libm.so
casinhf@GLIBC_2.2.5                               /usr/lib/gcc/x86_64-linux-gnu/4.8/../../../x86_64-linux-gnu/libm.so
casinhl                                           /usr/lib/gcc/x86_64-linux-gnu/4.8/../../../x86_64-linux-gnu/libm.so
casinhl@@GLIBC_2.2.5                              /usr/lib/gcc/x86_64-linux-gnu/4.8/../../../x86_64-linux-gnu/libm.so
casinhl@GLIBC_2.2.5                               /usr/lib/gcc/x86_64-linux-gnu/4.8/../../../x86_64-linux-gnu/libm.so
casinl                                            /usr/lib/gcc/x86_64-linux-gnu/4.8/../../../x86_64-linux-gnu/libm.so
casinl@@GLIBC_2.2.5                               /usr/lib/gcc/x86_64-linux-gnu/4.8/../../../x86_64-linux-gnu/libm.so
casinl@GLIBC_2.2.5                                /usr/lib/gcc/x86_64-linux-gnu/4.8/../../../x86_64-linux-gnu/libm.so
catan                                             /usr/lib/gcc/x86_64-linux-gnu/4.8/../../../x86_64-linux-gnu/libm.so
catan@@GLIBC_2.2.5                                /usr/lib/gcc/x86_64-linux-gnu/4.8/../../../x86_64-linux-gnu/libm.so
catan@GLIBC_2.2.5                                 /usr/lib/gcc/x86_64-linux-gnu/4.8/../../../x86_64-linux-gnu/libm.so
catanf                                            /usr/lib/gcc/x86_64-linux-gnu/4.8/../../../x86_64-linux-gnu/libm.so
catanf@@GLIBC_2.2.5                               /usr/lib/gcc/x86_64-linux-gnu/4.8/../../../x86_64-linux-gnu/libm.so
catanf@GLIBC_2.2.5                                /usr/lib/gcc/x86_64-linux-gnu/4.8/../../../x86_64-linux-gnu/libm.so
catanh                                            /usr/lib/gcc/x86_64-linux-gnu/4.8/../../../x86_64-linux-gnu/libm.so
catanh@@GLIBC_2.2.5                               /usr/lib/gcc/x86_64-linux-gnu/4.8/../../../x86_64-linux-gnu/libm.so
catanh@GLIBC_2.2.5                                /usr/lib/gcc/x86_64-linux-gnu/4.8/../../../x86_64-linux-gnu/libm.so
catanhf                                           /usr/lib/gcc/x86_64-linux-gnu/4.8/../../../x86_64-linux-gnu/libm.so
catanhf@@GLIBC_2.2.5                              /usr/lib/gcc/x86_64-linux-gnu/4.8/../../../x86_64-linux-gnu/libm.so
catanhf@GLIBC_2.2.5                               /usr/lib/gcc/x86_64-linux-gnu/4.8/../../../x86_64-linux-gnu/libm.so
catanhl                                           /usr/lib/gcc/x86_64-linux-gnu/4.8/../../../x86_64-linux-gnu/libm.so
catanhl@@GLIBC_2.2.5                              /usr/lib/gcc/x86_64-linux-gnu/4.8/../../../x86_64-linux-gnu/libm.so
catanhl@GLIBC_2.2.5                               /usr/lib/gcc/x86_64-linux-gnu/4.8/../../../x86_64-linux-gnu/libm.so
catanl                                            /usr/lib/gcc/x86_64-linux-gnu/4.8/../../../x86_64-linux-gnu/libm.so
catanl@@GLIBC_2.2.5                               /usr/lib/gcc/x86_64-linux-gnu/4.8/../../../x86_64-linux-gnu/libm.so
catanl@GLIBC_2.2.5                                /usr/lib/gcc/x86_64-linux-gnu/4.8/../../../x86_64-linux-gnu/libm.so
cbrt                                              /usr/lib/gcc/x86_64-linux-gnu/4.8/../../../x86_64-linux-gnu/libm.so
cbrt@@GLIBC_2.2.5                                 /usr/lib/gcc/x86_64-linux-gnu/4.8/../../../x86_64-linux-gnu/libm.so
cbrt@GLIBC_2.2.5                                  /usr/lib/gcc/x86_64-linux-gnu/4.8/../../../x86_64-linux-gnu/libm.so
cbrtf                                             /usr/lib/gcc/x86_64-linux-gnu/4.8/../../../x86_64-linux-gnu/libm.so
cbrtf@@GLIBC_2.2.5                                /usr/lib/gcc/x86_64-linux-gnu/4.8/../../../x86_64-linux-gnu/libm.so
cbrtf@GLIBC_2.2.5                                 /usr/lib/gcc/x86_64-linux-gnu/4.8/../../../x86_64-linux-gnu/libm.so
cbrtl                                             /usr/lib/gcc/x86_64-linux-gnu/4.8/../../../x86_64-linux-gnu/libm.so
cbrtl@@GLIBC_2.2.5                                /usr/lib/gcc/x86_64-linux-gnu/4.8/../../../x86_64-linux-gnu/libm.so
cbrtl@GLIBC_2.2.5                                 /usr/lib/gcc/x86_64-linux-gnu/4.8/../../../x86_64-linux-gnu/libm.so
ccos                                              /usr/lib/gcc/x86_64-linux-gnu/4.8/../../../x86_64-linux-gnu/libm.so
ccos@@GLIBC_2.2.5                                 /usr/lib/gcc/x86_64-linux-gnu/4.8/../../../x86_64-linux-gnu/libm.so
ccos@GLIBC_2.2.5                                  /usr/lib/gcc/x86_64-linux-gnu/4.8/../../../x86_64-linux-gnu/libm.so
ccosf                                             /usr/lib/gcc/x86_64-linux-gnu/4.8/../../../x86_64-linux-gnu/libm.so
ccosf@@GLIBC_2.2.5                                /usr/lib/gcc/x86_64-linux-gnu/4.8/../../../x86_64-linux-gnu/libm.so
ccosf@GLIBC_2.2.5                                 /usr/lib/gcc/x86_64-linux-gnu/4.8/../../../x86_64-linux-gnu/libm.so
ccosh                                             /usr/lib/gcc/x86_64-linux-gnu/4.8/../../../x86_64-linux-gnu/libm.so
ccosh@@GLIBC_2.2.5                                /usr/lib/gcc/x86_64-linux-gnu/4.8/../../../x86_64-linux-gnu/libm.so
ccosh@GLIBC_2.2.5                                 /usr/lib/gcc/x86_64-linux-gnu/4.8/../../../x86_64-linux-gnu/libm.so
ccoshf                                            /usr/lib/gcc/x86_64-linux-gnu/4.8/../../../x86_64-linux-gnu/libm.so
ccoshf@@GLIBC_2.2.5                               /usr/lib/gcc/x86_64-linux-gnu/4.8/../../../x86_64-linux-gnu/libm.so
ccoshf@GLIBC_2.2.5                                /usr/lib/gcc/x86_64-linux-gnu/4.8/../../../x86_64-linux-gnu/libm.so
ccoshl                                            /usr/lib/gcc/x86_64-linux-gnu/4.8/../../../x86_64-linux-gnu/libm.so
ccoshl@@GLIBC_2.2.5                               /usr/lib/gcc/x86_64-linux-gnu/4.8/../../../x86_64-linux-gnu/libm.so
ccoshl@GLIBC_2.2.5                                /usr/lib/gcc/x86_64-linux-gnu/4.8/../../../x86_64-linux-gnu/libm.so
ccosl                                             /usr/lib/gcc/x86_64-linux-gnu/4.8/../../../x86_64-linux-gnu/libm.so
ccosl@@GLIBC_2.2.5                                /usr/lib/gcc/x86_64-linux-gnu/4.8/../../../x86_64-linux-gnu/libm.so
ccosl@GLIBC_2.2.5                                 /usr/lib/gcc/x86_64-linux-gnu/4.8/../../../x86_64-linux-gnu/libm.so
ceil                                              /usr/lib/gcc/x86_64-linux-gnu/4.8/../../../x86_64-linux-gnu/libm.so
ceil@@GLIBC_2.2.5                                 /usr/lib/gcc/x86_64-linux-gnu/4.8/../../../x86_64-linux-gnu/libm.so
ceil@GLIBC_2.2.5                                  /usr/lib/gcc/x86_64-linux-gnu/4.8/../../../x86_64-linux-gnu/libm.so
ceilf                                             /usr/lib/gcc/x86_64-linux-gnu/4.8/../../../x86_64-linux-gnu/libm.so
ceilf@@GLIBC_2.2.5                                /usr/lib/gcc/x86_64-linux-gnu/4.8/../../../x86_64-linux-gnu/libm.so
ceilf@GLIBC_2.2.5                                 /usr/lib/gcc/x86_64-linux-gnu/4.8/../../../x86_64-linux-gnu/libm.so
ceill                                             /usr/lib/gcc/x86_64-linux-gnu/4.8/../../../x86_64-linux-gnu/libm.so
ceill@@GLIBC_2.2.5                                /usr/lib/gcc/x86_64-linux-gnu/4.8/../../../x86_64-linux-gnu/libm.so
ceill@GLIBC_2.2.5                                 /usr/lib/gcc/x86_64-linux-gnu/4.8/../../../x86_64-linux-gnu/libm.so
cexp                                              /usr/lib/gcc/x86_64-linux-gnu/4.8/../../../x86_64-linux-gnu/libm.so
cexp@@GLIBC_2.2.5                                 /usr/lib/gcc/x86_64-linux-gnu/4.8/../../../x86_64-linux-gnu/libm.so
cexp@GLIBC_2.2.5                                  /usr/lib/gcc/x86_64-linux-gnu/4.8/../../../x86_64-linux-gnu/libm.so
cexpf                                             /usr/lib/gcc/x86_64-linux-gnu/4.8/../../../x86_64-linux-gnu/libm.so
cexpf@@GLIBC_2.2.5                                /usr/lib/gcc/x86_64-linux-gnu/4.8/../../../x86_64-linux-gnu/libm.so
cexpf@GLIBC_2.2.5                                 /usr/lib/gcc/x86_64-linux-gnu/4.8/../../../x86_64-linux-gnu/libm.so
cexpl                                             /usr/lib/gcc/x86_64-linux-gnu/4.8/../../../x86_64-linux-gnu/libm.so
cexpl@@GLIBC_2.2.5                                /usr/lib/gcc/x86_64-linux-gnu/4.8/../../../x86_64-linux-gnu/libm.so
cexpl@GLIBC_2.2.5                                 /usr/lib/gcc/x86_64-linux-gnu/4.8/../../../x86_64-linux-gnu/libm.so
cfree                                             /lib/x86_64-linux-gnu/libc.so.6
cfree@@GLIBC_2.2.5                                /lib/x86_64-linux-gnu/libc.so.6
cfree@GLIBC_2.2.5                                 /lib/x86_64-linux-gnu/libc.so.6
chdir                                             /lib/x86_64-linux-gnu/libc.so.6
chdir@@GLIBC_2.2.5                                /lib/x86_64-linux-gnu/libc.so.6
chdir@GLIBC_2.2.5                                 /lib/x86_64-linux-gnu/libc.so.6
chmod                                             /lib/x86_64-linux-gnu/libc.so.6
chmod@@GLIBC_2.2.5                                /lib/x86_64-linux-gnu/libc.so.6
chmod@GLIBC_2.2.5                                 /lib/x86_64-linux-gnu/libc.so.6
chown                                             /lib/x86_64-linux-gnu/libc.so.6
chown@@GLIBC_2.2.5                                /lib/x86_64-linux-gnu/libc.so.6
chown@GLIBC_2.2.5                                 /lib/x86_64-linux-gnu/libc.so.6
cimag                                             /usr/lib/gcc/x86_64-linux-gnu/4.8/../../../x86_64-linux-gnu/libm.so
cimag@@GLIBC_2.2.5                                /usr/lib/gcc/x86_64-linux-gnu/4.8/../../../x86_64-linux-gnu/libm.so
cimag@GLIBC_2.2.5                                 /usr/lib/gcc/x86_64-linux-gnu/4.8/../../../x86_64-linux-gnu/libm.so
cimagf                                            /usr/lib/gcc/x86_64-linux-gnu/4.8/../../../x86_64-linux-gnu/libm.so
cimagf@@GLIBC_2.2.5                               /usr/lib/gcc/x86_64-linux-gnu/4.8/../../../x86_64-linux-gnu/libm.so
cimagf@GLIBC_2.2.5                                /usr/lib/gcc/x86_64-linux-gnu/4.8/../../../x86_64-linux-gnu/libm.so
cimagl                                            /usr/lib/gcc/x86_64-linux-gnu/4.8/../../../x86_64-linux-gnu/libm.so
cimagl@@GLIBC_2.2.5                               /usr/lib/gcc/x86_64-linux-gnu/4.8/../../../x86_64-linux-gnu/libm.so
cimagl@GLIBC_2.2.5                                /usr/lib/gcc/x86_64-linux-gnu/4.8/../../../x86_64-linux-gnu/libm.so
cirbuf_add_buf_head                               /root/hpc/x86_64-native-linuxapp-gcc/lib/librte_cmdline.a(cmdline_cirbuf.o)
cirbuf_add_buf_tail                               /root/hpc/x86_64-native-linuxapp-gcc/lib/librte_cmdline.a(cmdline_cirbuf.o)
                                                  /root/hpc/x86_64-native-linuxapp-gcc/lib/librte_cmdline.a(cmdline_rdline.o)
cirbuf_add_head                                   /root/hpc/x86_64-native-linuxapp-gcc/lib/librte_cmdline.a(cmdline_cirbuf.o)
                                                  /root/hpc/x86_64-native-linuxapp-gcc/lib/librte_cmdline.a(cmdline_rdline.o)
cirbuf_add_head_safe                              /root/hpc/x86_64-native-linuxapp-gcc/lib/librte_cmdline.a(cmdline_cirbuf.o)
cirbuf_add_tail                                   /root/hpc/x86_64-native-linuxapp-gcc/lib/librte_cmdline.a(cmdline_cirbuf.o)
                                                  /root/hpc/x86_64-native-linuxapp-gcc/lib/librte_cmdline.a(cmdline_rdline.o)
cirbuf_add_tail_safe                              /root/hpc/x86_64-native-linuxapp-gcc/lib/librte_cmdline.a(cmdline_cirbuf.o)
                                                  /root/hpc/x86_64-native-linuxapp-gcc/lib/librte_cmdline.a(cmdline_rdline.o)
cirbuf_align_left                                 /root/hpc/x86_64-native-linuxapp-gcc/lib/librte_cmdline.a(cmdline_cirbuf.o)
                                                  /root/hpc/x86_64-native-linuxapp-gcc/lib/librte_cmdline.a(cmdline_rdline.o)
cirbuf_align_right                                /root/hpc/x86_64-native-linuxapp-gcc/lib/librte_cmdline.a(cmdline_cirbuf.o)
cirbuf_del_buf_head                               /root/hpc/x86_64-native-linuxapp-gcc/lib/librte_cmdline.a(cmdline_cirbuf.o)
                                                  /root/hpc/x86_64-native-linuxapp-gcc/lib/librte_cmdline.a(cmdline_rdline.o)
cirbuf_del_buf_tail                               /root/hpc/x86_64-native-linuxapp-gcc/lib/librte_cmdline.a(cmdline_cirbuf.o)
cirbuf_del_head                                   /root/hpc/x86_64-native-linuxapp-gcc/lib/librte_cmdline.a(cmdline_cirbuf.o)
                                                  /root/hpc/x86_64-native-linuxapp-gcc/lib/librte_cmdline.a(cmdline_rdline.o)
cirbuf_del_head_safe                              /root/hpc/x86_64-native-linuxapp-gcc/lib/librte_cmdline.a(cmdline_cirbuf.o)
                                                  /root/hpc/x86_64-native-linuxapp-gcc/lib/librte_cmdline.a(cmdline_rdline.o)
cirbuf_del_tail                                   /root/hpc/x86_64-native-linuxapp-gcc/lib/librte_cmdline.a(cmdline_cirbuf.o)
                                                  /root/hpc/x86_64-native-linuxapp-gcc/lib/librte_cmdline.a(cmdline_rdline.o)
cirbuf_del_tail_safe                              /root/hpc/x86_64-native-linuxapp-gcc/lib/librte_cmdline.a(cmdline_cirbuf.o)
                                                  /root/hpc/x86_64-native-linuxapp-gcc/lib/librte_cmdline.a(cmdline_rdline.o)
cirbuf_get_buf_head                               /root/hpc/x86_64-native-linuxapp-gcc/lib/librte_cmdline.a(cmdline_cirbuf.o)
                                                  /root/hpc/x86_64-native-linuxapp-gcc/lib/librte_cmdline.a(cmdline_rdline.o)
cirbuf_get_buf_tail                               /root/hpc/x86_64-native-linuxapp-gcc/lib/librte_cmdline.a(cmdline_cirbuf.o)
cirbuf_get_head                                   /root/hpc/x86_64-native-linuxapp-gcc/lib/librte_cmdline.a(cmdline_cirbuf.o)
                                                  /root/hpc/x86_64-native-linuxapp-gcc/lib/librte_cmdline.a(cmdline_rdline.o)
cirbuf_get_tail                                   /root/hpc/x86_64-native-linuxapp-gcc/lib/librte_cmdline.a(cmdline_cirbuf.o)
                                                  /root/hpc/x86_64-native-linuxapp-gcc/lib/librte_cmdline.a(cmdline_rdline.o)
cirbuf_init                                       /root/hpc/x86_64-native-linuxapp-gcc/lib/librte_cmdline.a(cmdline_cirbuf.o)
                                                  /root/hpc/x86_64-native-linuxapp-gcc/lib/librte_cmdline.a(cmdline_rdline.o)
clearenv                                          /lib/x86_64-linux-gnu/libc.so.6
clearenv@@GLIBC_2.2.5                             /lib/x86_64-linux-gnu/libc.so.6
clearenv@GLIBC_2.2.5                              /lib/x86_64-linux-gnu/libc.so.6
clock_gettime                                     /usr/lib/gcc/x86_64-linux-gnu/4.8/../../../x86_64-linux-gnu/librt.so
                                                  /root/hpc/x86_64-native-linuxapp-gcc/lib/librte_eal.a(eal_timer.o)
clock_gettime@@GLIBC_2.17                         /lib/x86_64-linux-gnu/libc.so.6
clock_gettime@@GLIBC_2.2.5                        /usr/lib/gcc/x86_64-linux-gnu/4.8/../../../x86_64-linux-gnu/librt.so
clock_gettime@GLIBC_2.17                          /lib/x86_64-linux-gnu/libc.so.6
clock_gettime@GLIBC_2.2.5                         /usr/lib/gcc/x86_64-linux-gnu/4.8/../../../x86_64-linux-gnu/librt.so
clog                                              /usr/lib/gcc/x86_64-linux-gnu/4.8/../../../x86_64-linux-gnu/libm.so
clog10                                            /usr/lib/gcc/x86_64-linux-gnu/4.8/../../../x86_64-linux-gnu/libm.so
clog10@@GLIBC_2.2.5                               /usr/lib/gcc/x86_64-linux-gnu/4.8/../../../x86_64-linux-gnu/libm.so
clog10@GLIBC_2.2.5                                /usr/lib/gcc/x86_64-linux-gnu/4.8/../../../x86_64-linux-gnu/libm.so
clog10f                                           /usr/lib/gcc/x86_64-linux-gnu/4.8/../../../x86_64-linux-gnu/libm.so
clog10f@@GLIBC_2.2.5                              /usr/lib/gcc/x86_64-linux-gnu/4.8/../../../x86_64-linux-gnu/libm.so
clog10f@GLIBC_2.2.5                               /usr/lib/gcc/x86_64-linux-gnu/4.8/../../../x86_64-linux-gnu/libm.so
clog10l                                           /usr/lib/gcc/x86_64-linux-gnu/4.8/../../../x86_64-linux-gnu/libm.so
clog10l@@GLIBC_2.2.5                              /usr/lib/gcc/x86_64-linux-gnu/4.8/../../../x86_64-linux-gnu/libm.so
clog10l@GLIBC_2.2.5                               /usr/lib/gcc/x86_64-linux-gnu/4.8/../../../x86_64-linux-gnu/libm.so
clog@@GLIBC_2.2.5                                 /usr/lib/gcc/x86_64-linux-gnu/4.8/../../../x86_64-linux-gnu/libm.so
clog@GLIBC_2.2.5                                  /usr/lib/gcc/x86_64-linux-gnu/4.8/../../../x86_64-linux-gnu/libm.so
clogf                                             /usr/lib/gcc/x86_64-linux-gnu/4.8/../../../x86_64-linux-gnu/libm.so
clogf@@GLIBC_2.2.5                                /usr/lib/gcc/x86_64-linux-gnu/4.8/../../../x86_64-linux-gnu/libm.so
clogf@GLIBC_2.2.5                                 /usr/lib/gcc/x86_64-linux-gnu/4.8/../../../x86_64-linux-gnu/libm.so
clogl                                             /usr/lib/gcc/x86_64-linux-gnu/4.8/../../../x86_64-linux-gnu/libm.so
clogl@@GLIBC_2.2.5                                /usr/lib/gcc/x86_64-linux-gnu/4.8/../../../x86_64-linux-gnu/libm.so
clogl@GLIBC_2.2.5                                 /usr/lib/gcc/x86_64-linux-gnu/4.8/../../../x86_64-linux-gnu/libm.so
clone                                             /lib/x86_64-linux-gnu/libc.so.6
clone@@GLIBC_2.2.5                                /lib/x86_64-linux-gnu/libc.so.6
clone@GLIBC_2.2.5                                 /lib/x86_64-linux-gnu/libc.so.6
close                                             /lib/x86_64-linux-gnu/libpthread.so.0
                                                  /root/hpc/x86_64-native-linuxapp-gcc/lib/librte_cmdline.a(cmdline.o)
                                                  /root/hpc/x86_64-native-linuxapp-gcc/lib/librte_eal.a(eal_memory.o)
                                                  /root/hpc/x86_64-native-linuxapp-gcc/lib/librte_eal.a(eal_hugepage_info.o)
                                                  /root/hpc/x86_64-native-linuxapp-gcc/lib/librte_eal.a(eal.o)
close@@GLIBC_2.2.5                                /lib/x86_64-linux-gnu/libpthread.so.0
                                                  /lib/x86_64-linux-gnu/libc.so.6
close@GLIBC_2.2.5                                 /lib/x86_64-linux-gnu/libpthread.so.0
closedir                                          /lib/x86_64-linux-gnu/libc.so.6
                                                  /root/hpc/x86_64-native-linuxapp-gcc/lib/librte_eal.a(eal_hugepage_info.o)
closedir@@GLIBC_2.2.5                             /lib/x86_64-linux-gnu/libc.so.6
closedir@GLIBC_2.2.5                              /lib/x86_64-linux-gnu/libc.so.6
cmd_help                                          commands.o
cmd_help_help                                     commands.o
cmd_obj_action                                    commands.o
cmd_obj_action_add                                commands.o
cmd_obj_add                                       commands.o
cmd_obj_del_show                                  commands.o
cmd_obj_ip                                        commands.o
cmd_obj_name                                      commands.o
cmd_obj_obj                                       commands.o
cmdline_complete                                  /root/hpc/x86_64-native-linuxapp-gcc/lib/librte_cmdline.a(cmdline_parse.o)
                                                  /root/hpc/x86_64-native-linuxapp-gcc/lib/librte_cmdline.a(cmdline.o)
cmdline_complete_get_elt_string                   /root/hpc/x86_64-native-linuxapp-gcc/lib/librte_cmdline.a(cmdline_parse_string.o)
cmdline_complete_get_nb_string                    /root/hpc/x86_64-native-linuxapp-gcc/lib/librte_cmdline.a(cmdline_parse_string.o)
cmdline_file_new                                  /root/hpc/x86_64-native-linuxapp-gcc/lib/librte_cmdline.a(cmdline_socket.o)
cmdline_free                                      /root/hpc/x86_64-native-linuxapp-gcc/lib/librte_cmdline.a(cmdline.o)
cmdline_get_help_etheraddr                        /root/hpc/x86_64-native-linuxapp-gcc/lib/librte_cmdline.a(cmdline_parse_etheraddr.o)
cmdline_get_help_ipaddr                           /root/hpc/x86_64-native-linuxapp-gcc/lib/librte_cmdline.a(cmdline_parse_ipaddr.o)
cmdline_get_help_num                              /root/hpc/x86_64-native-linuxapp-gcc/lib/librte_cmdline.a(cmdline_parse_num.o)
cmdline_get_help_portlist                         /root/hpc/x86_64-native-linuxapp-gcc/lib/librte_cmdline.a(cmdline_parse_portlist.o)
cmdline_get_help_string                           /root/hpc/x86_64-native-linuxapp-gcc/lib/librte_cmdline.a(cmdline_parse_string.o)
cmdline_in                                        /root/hpc/x86_64-native-linuxapp-gcc/lib/librte_cmdline.a(cmdline.o)
cmdline_interact                                  /root/hpc/x86_64-native-linuxapp-gcc/lib/librte_cmdline.a(cmdline.o)
                                                  main.o
cmdline_isendoftoken                              /root/hpc/x86_64-native-linuxapp-gcc/lib/librte_cmdline.a(cmdline_parse.o)
                                                  /root/hpc/x86_64-native-linuxapp-gcc/lib/librte_cmdline.a(cmdline_parse_portlist.o)
                                                  /root/hpc/x86_64-native-linuxapp-gcc/lib/librte_cmdline.a(cmdline_parse_string.o)
                                                  /root/hpc/x86_64-native-linuxapp-gcc/lib/librte_cmdline.a(cmdline_parse_num.o)
                                                  /root/hpc/x86_64-native-linuxapp-gcc/lib/librte_cmdline.a(cmdline_parse_ipaddr.o)
                                                  /root/hpc/x86_64-native-linuxapp-gcc/lib/librte_cmdline.a(cmdline_parse_etheraddr.o)
                                                  parse_obj_list.o
cmdline_new                                       /root/hpc/x86_64-native-linuxapp-gcc/lib/librte_cmdline.a(cmdline.o)
                                                  /root/hpc/x86_64-native-linuxapp-gcc/lib/librte_cmdline.a(cmdline_socket.o)
cmdline_parse                                     /root/hpc/x86_64-native-linuxapp-gcc/lib/librte_cmdline.a(cmdline_parse.o)
                                                  /root/hpc/x86_64-native-linuxapp-gcc/lib/librte_cmdline.a(cmdline.o)
cmdline_parse_etheraddr                           /root/hpc/x86_64-native-linuxapp-gcc/lib/librte_cmdline.a(cmdline_parse_etheraddr.o)
cmdline_parse_ipaddr                              /root/hpc/x86_64-native-linuxapp-gcc/lib/librte_cmdline.a(cmdline_parse_ipaddr.o)
cmdline_parse_num                                 /root/hpc/x86_64-native-linuxapp-gcc/lib/librte_cmdline.a(cmdline_parse_num.o)
cmdline_parse_portlist                            /root/hpc/x86_64-native-linuxapp-gcc/lib/librte_cmdline.a(cmdline_parse_portlist.o)
cmdline_parse_string                              /root/hpc/x86_64-native-linuxapp-gcc/lib/librte_cmdline.a(cmdline_parse_string.o)
cmdline_poll                                      /root/hpc/x86_64-native-linuxapp-gcc/lib/librte_cmdline.a(cmdline.o)
cmdline_printf                                    /root/hpc/x86_64-native-linuxapp-gcc/lib/librte_cmdline.a(cmdline.o)
                                                  commands.o
cmdline_quit                                      /root/hpc/x86_64-native-linuxapp-gcc/lib/librte_cmdline.a(cmdline.o)
cmdline_set_prompt                                /root/hpc/x86_64-native-linuxapp-gcc/lib/librte_cmdline.a(cmdline.o)
cmdline_stdin_exit                                /root/hpc/x86_64-native-linuxapp-gcc/lib/librte_cmdline.a(cmdline_socket.o)
                                                  main.o
cmdline_stdin_new                                 /root/hpc/x86_64-native-linuxapp-gcc/lib/librte_cmdline.a(cmdline_socket.o)
                                                  main.o
cmdline_token_etheraddr_ops                       /root/hpc/x86_64-native-linuxapp-gcc/lib/librte_cmdline.a(cmdline_parse_etheraddr.o)
cmdline_token_ipaddr_ops                          /root/hpc/x86_64-native-linuxapp-gcc/lib/librte_cmdline.a(cmdline_parse_ipaddr.o)
                                                  commands.o
cmdline_token_num_ops                             /root/hpc/x86_64-native-linuxapp-gcc/lib/librte_cmdline.a(cmdline_parse_num.o)
cmdline_token_portlist_ops                        /root/hpc/x86_64-native-linuxapp-gcc/lib/librte_cmdline.a(cmdline_parse_portlist.o)
cmdline_token_string_ops                          /root/hpc/x86_64-native-linuxapp-gcc/lib/librte_cmdline.a(cmdline_parse_string.o)
                                                  commands.o
cmdline_vt100_commands                            /root/hpc/x86_64-native-linuxapp-gcc/lib/librte_cmdline.a(cmdline_vt100.o)
cmdline_write_char                                /root/hpc/x86_64-native-linuxapp-gcc/lib/librte_cmdline.a(cmdline.o)
complete_get_elt_obj_list                         parse_obj_list.o
complete_get_nb_obj_list                          parse_obj_list.o
conj                                              /usr/lib/gcc/x86_64-linux-gnu/4.8/../../../x86_64-linux-gnu/libm.so
conj@@GLIBC_2.2.5                                 /usr/lib/gcc/x86_64-linux-gnu/4.8/../../../x86_64-linux-gnu/libm.so
conj@GLIBC_2.2.5                                  /usr/lib/gcc/x86_64-linux-gnu/4.8/../../../x86_64-linux-gnu/libm.so
conjf                                             /usr/lib/gcc/x86_64-linux-gnu/4.8/../../../x86_64-linux-gnu/libm.so
conjf@@GLIBC_2.2.5                                /usr/lib/gcc/x86_64-linux-gnu/4.8/../../../x86_64-linux-gnu/libm.so
conjf@GLIBC_2.2.5                                 /usr/lib/gcc/x86_64-linux-gnu/4.8/../../../x86_64-linux-gnu/libm.so
conjl                                             /usr/lib/gcc/x86_64-linux-gnu/4.8/../../../x86_64-linux-gnu/libm.so
conjl@@GLIBC_2.2.5                                /usr/lib/gcc/x86_64-linux-gnu/4.8/../../../x86_64-linux-gnu/libm.so
conjl@GLIBC_2.2.5                                 /usr/lib/gcc/x86_64-linux-gnu/4.8/../../../x86_64-linux-gnu/libm.so
connect                                           /lib/x86_64-linux-gnu/libpthread.so.0
connect@@GLIBC_2.2.5                              /lib/x86_64-linux-gnu/libpthread.so.0
                                                  /lib/x86_64-linux-gnu/libc.so.6
connect@GLIBC_2.2.5                               /lib/x86_64-linux-gnu/libpthread.so.0
copysign                                          /usr/lib/gcc/x86_64-linux-gnu/4.8/../../../x86_64-linux-gnu/libm.so
copysign@@GLIBC_2.2.5                             /usr/lib/gcc/x86_64-linux-gnu/4.8/../../../x86_64-linux-gnu/libm.so
                                                  /lib/x86_64-linux-gnu/libc.so.6
copysign@GLIBC_2.2.5                              /usr/lib/gcc/x86_64-linux-gnu/4.8/../../../x86_64-linux-gnu/libm.so
copysignf                                         /usr/lib/gcc/x86_64-linux-gnu/4.8/../../../x86_64-linux-gnu/libm.so
copysignf@@GLIBC_2.2.5                            /usr/lib/gcc/x86_64-linux-gnu/4.8/../../../x86_64-linux-gnu/libm.so
                                                  /lib/x86_64-linux-gnu/libc.so.6
copysignf@GLIBC_2.2.5                             /usr/lib/gcc/x86_64-linux-gnu/4.8/../../../x86_64-linux-gnu/libm.so
copysignl                                         /usr/lib/gcc/x86_64-linux-gnu/4.8/../../../x86_64-linux-gnu/libm.so
copysignl@@GLIBC_2.2.5                            /usr/lib/gcc/x86_64-linux-gnu/4.8/../../../x86_64-linux-gnu/libm.so
                                                  /lib/x86_64-linux-gnu/libc.so.6
copysignl@GLIBC_2.2.5                             /usr/lib/gcc/x86_64-linux-gnu/4.8/../../../x86_64-linux-gnu/libm.so
cos                                               /usr/lib/gcc/x86_64-linux-gnu/4.8/../../../x86_64-linux-gnu/libm.so
cos@@GLIBC_2.2.5                                  /usr/lib/gcc/x86_64-linux-gnu/4.8/../../../x86_64-linux-gnu/libm.so
cos@GLIBC_2.2.5                                   /usr/lib/gcc/x86_64-linux-gnu/4.8/../../../x86_64-linux-gnu/libm.so
cosf                                              /usr/lib/gcc/x86_64-linux-gnu/4.8/../../../x86_64-linux-gnu/libm.so
cosf@@GLIBC_2.2.5                                 /usr/lib/gcc/x86_64-linux-gnu/4.8/../../../x86_64-linux-gnu/libm.so
cosf@GLIBC_2.2.5                                  /usr/lib/gcc/x86_64-linux-gnu/4.8/../../../x86_64-linux-gnu/libm.so
cosh                                              /usr/lib/gcc/x86_64-linux-gnu/4.8/../../../x86_64-linux-gnu/libm.so
cosh@@GLIBC_2.2.5                                 /usr/lib/gcc/x86_64-linux-gnu/4.8/../../../x86_64-linux-gnu/libm.so
cosh@GLIBC_2.2.5                                  /usr/lib/gcc/x86_64-linux-gnu/4.8/../../../x86_64-linux-gnu/libm.so
coshf                                             /usr/lib/gcc/x86_64-linux-gnu/4.8/../../../x86_64-linux-gnu/libm.so
coshf@@GLIBC_2.2.5                                /usr/lib/gcc/x86_64-linux-gnu/4.8/../../../x86_64-linux-gnu/libm.so
coshf@GLIBC_2.2.5                                 /usr/lib/gcc/x86_64-linux-gnu/4.8/../../../x86_64-linux-gnu/libm.so
coshl                                             /usr/lib/gcc/x86_64-linux-gnu/4.8/../../../x86_64-linux-gnu/libm.so
coshl@@GLIBC_2.2.5                                /usr/lib/gcc/x86_64-linux-gnu/4.8/../../../x86_64-linux-gnu/libm.so
coshl@GLIBC_2.2.5                                 /usr/lib/gcc/x86_64-linux-gnu/4.8/../../../x86_64-linux-gnu/libm.so
cosl                                              /usr/lib/gcc/x86_64-linux-gnu/4.8/../../../x86_64-linux-gnu/libm.so
cosl@@GLIBC_2.2.5                                 /usr/lib/gcc/x86_64-linux-gnu/4.8/../../../x86_64-linux-gnu/libm.so
cosl@GLIBC_2.2.5                                  /usr/lib/gcc/x86_64-linux-gnu/4.8/../../../x86_64-linux-gnu/libm.so
cpow                                              /usr/lib/gcc/x86_64-linux-gnu/4.8/../../../x86_64-linux-gnu/libm.so
cpow@@GLIBC_2.2.5                                 /usr/lib/gcc/x86_64-linux-gnu/4.8/../../../x86_64-linux-gnu/libm.so
cpow@GLIBC_2.2.5                                  /usr/lib/gcc/x86_64-linux-gnu/4.8/../../../x86_64-linux-gnu/libm.so
cpowf                                             /usr/lib/gcc/x86_64-linux-gnu/4.8/../../../x86_64-linux-gnu/libm.so
cpowf@@GLIBC_2.2.5                                /usr/lib/gcc/x86_64-linux-gnu/4.8/../../../x86_64-linux-gnu/libm.so
cpowf@GLIBC_2.2.5                                 /usr/lib/gcc/x86_64-linux-gnu/4.8/../../../x86_64-linux-gnu/libm.so
cpowl                                             /usr/lib/gcc/x86_64-linux-gnu/4.8/../../../x86_64-linux-gnu/libm.so
cpowl@@GLIBC_2.2.5                                /usr/lib/gcc/x86_64-linux-gnu/4.8/../../../x86_64-linux-gnu/libm.so
cpowl@GLIBC_2.2.5                                 /usr/lib/gcc/x86_64-linux-gnu/4.8/../../../x86_64-linux-gnu/libm.so
cproj                                             /usr/lib/gcc/x86_64-linux-gnu/4.8/../../../x86_64-linux-gnu/libm.so
cproj@@GLIBC_2.2.5                                /usr/lib/gcc/x86_64-linux-gnu/4.8/../../../x86_64-linux-gnu/libm.so
cproj@GLIBC_2.2.5                                 /usr/lib/gcc/x86_64-linux-gnu/4.8/../../../x86_64-linux-gnu/libm.so
cprojf                                            /usr/lib/gcc/x86_64-linux-gnu/4.8/../../../x86_64-linux-gnu/libm.so
cprojf@@GLIBC_2.2.5                               /usr/lib/gcc/x86_64-linux-gnu/4.8/../../../x86_64-linux-gnu/libm.so
cprojf@GLIBC_2.2.5                                /usr/lib/gcc/x86_64-linux-gnu/4.8/../../../x86_64-linux-gnu/libm.so
cprojl                                            /usr/lib/gcc/x86_64-linux-gnu/4.8/../../../x86_64-linux-gnu/libm.so
cprojl@@GLIBC_2.2.5                               /usr/lib/gcc/x86_64-linux-gnu/4.8/../../../x86_64-linux-gnu/libm.so
cprojl@GLIBC_2.2.5                                /usr/lib/gcc/x86_64-linux-gnu/4.8/../../../x86_64-linux-gnu/libm.so
creal                                             /usr/lib/gcc/x86_64-linux-gnu/4.8/../../../x86_64-linux-gnu/libm.so
creal@@GLIBC_2.2.5                                /usr/lib/gcc/x86_64-linux-gnu/4.8/../../../x86_64-linux-gnu/libm.so
creal@GLIBC_2.2.5                                 /usr/lib/gcc/x86_64-linux-gnu/4.8/../../../x86_64-linux-gnu/libm.so
crealf                                            /usr/lib/gcc/x86_64-linux-gnu/4.8/../../../x86_64-linux-gnu/libm.so
crealf@@GLIBC_2.2.5                               /usr/lib/gcc/x86_64-linux-gnu/4.8/../../../x86_64-linux-gnu/libm.so
crealf@GLIBC_2.2.5                                /usr/lib/gcc/x86_64-linux-gnu/4.8/../../../x86_64-linux-gnu/libm.so
creall                                            /usr/lib/gcc/x86_64-linux-gnu/4.8/../../../x86_64-linux-gnu/libm.so
creall@@GLIBC_2.2.5                               /usr/lib/gcc/x86_64-linux-gnu/4.8/../../../x86_64-linux-gnu/libm.so
creall@GLIBC_2.2.5                                /usr/lib/gcc/x86_64-linux-gnu/4.8/../../../x86_64-linux-gnu/libm.so
creat                                             /lib/x86_64-linux-gnu/libc.so.6
creat64                                           /lib/x86_64-linux-gnu/libc.so.6
creat64@@GLIBC_2.2.5                              /lib/x86_64-linux-gnu/libc.so.6
creat64@GLIBC_2.2.5                               /lib/x86_64-linux-gnu/libc.so.6
creat@@GLIBC_2.2.5                                /lib/x86_64-linux-gnu/libc.so.6
creat@GLIBC_2.2.5                                 /lib/x86_64-linux-gnu/libc.so.6
csin                                              /usr/lib/gcc/x86_64-linux-gnu/4.8/../../../x86_64-linux-gnu/libm.so
csin@@GLIBC_2.2.5                                 /usr/lib/gcc/x86_64-linux-gnu/4.8/../../../x86_64-linux-gnu/libm.so
csin@GLIBC_2.2.5                                  /usr/lib/gcc/x86_64-linux-gnu/4.8/../../../x86_64-linux-gnu/libm.so
csinf                                             /usr/lib/gcc/x86_64-linux-gnu/4.8/../../../x86_64-linux-gnu/libm.so
csinf@@GLIBC_2.2.5                                /usr/lib/gcc/x86_64-linux-gnu/4.8/../../../x86_64-linux-gnu/libm.so
csinf@GLIBC_2.2.5                                 /usr/lib/gcc/x86_64-linux-gnu/4.8/../../../x86_64-linux-gnu/libm.so
csinh                                             /usr/lib/gcc/x86_64-linux-gnu/4.8/../../../x86_64-linux-gnu/libm.so
csinh@@GLIBC_2.2.5                                /usr/lib/gcc/x86_64-linux-gnu/4.8/../../../x86_64-linux-gnu/libm.so
csinh@GLIBC_2.2.5                                 /usr/lib/gcc/x86_64-linux-gnu/4.8/../../../x86_64-linux-gnu/libm.so
csinhf                                            /usr/lib/gcc/x86_64-linux-gnu/4.8/../../../x86_64-linux-gnu/libm.so
csinhf@@GLIBC_2.2.5                               /usr/lib/gcc/x86_64-linux-gnu/4.8/../../../x86_64-linux-gnu/libm.so
csinhf@GLIBC_2.2.5                                /usr/lib/gcc/x86_64-linux-gnu/4.8/../../../x86_64-linux-gnu/libm.so
csinhl                                            /usr/lib/gcc/x86_64-linux-gnu/4.8/../../../x86_64-linux-gnu/libm.so
csinhl@@GLIBC_2.2.5                               /usr/lib/gcc/x86_64-linux-gnu/4.8/../../../x86_64-linux-gnu/libm.so
csinhl@GLIBC_2.2.5                                /usr/lib/gcc/x86_64-linux-gnu/4.8/../../../x86_64-linux-gnu/libm.so
csinl                                             /usr/lib/gcc/x86_64-linux-gnu/4.8/../../../x86_64-linux-gnu/libm.so
csinl@@GLIBC_2.2.5                                /usr/lib/gcc/x86_64-linux-gnu/4.8/../../../x86_64-linux-gnu/libm.so
csinl@GLIBC_2.2.5                                 /usr/lib/gcc/x86_64-linux-gnu/4.8/../../../x86_64-linux-gnu/libm.so
csqrt                                             /usr/lib/gcc/x86_64-linux-gnu/4.8/../../../x86_64-linux-gnu/libm.so
csqrt@@GLIBC_2.2.5                                /usr/lib/gcc/x86_64-linux-gnu/4.8/../../../x86_64-linux-gnu/libm.so
csqrt@GLIBC_2.2.5                                 /usr/lib/gcc/x86_64-linux-gnu/4.8/../../../x86_64-linux-gnu/libm.so
csqrtf                                            /usr/lib/gcc/x86_64-linux-gnu/4.8/../../../x86_64-linux-gnu/libm.so
csqrtf@@GLIBC_2.2.5                               /usr/lib/gcc/x86_64-linux-gnu/4.8/../../../x86_64-linux-gnu/libm.so
csqrtf@GLIBC_2.2.5                                /usr/lib/gcc/x86_64-linux-gnu/4.8/../../../x86_64-linux-gnu/libm.so
csqrtl                                            /usr/lib/gcc/x86_64-linux-gnu/4.8/../../../x86_64-linux-gnu/libm.so
csqrtl@@GLIBC_2.2.5                               /usr/lib/gcc/x86_64-linux-gnu/4.8/../../../x86_64-linux-gnu/libm.so
csqrtl@GLIBC_2.2.5                                /usr/lib/gcc/x86_64-linux-gnu/4.8/../../../x86_64-linux-gnu/libm.so
ctan                                              /usr/lib/gcc/x86_64-linux-gnu/4.8/../../../x86_64-linux-gnu/libm.so
ctan@@GLIBC_2.2.5                                 /usr/lib/gcc/x86_64-linux-gnu/4.8/../../../x86_64-linux-gnu/libm.so
ctan@GLIBC_2.2.5                                  /usr/lib/gcc/x86_64-linux-gnu/4.8/../../../x86_64-linux-gnu/libm.so
ctanf                                             /usr/lib/gcc/x86_64-linux-gnu/4.8/../../../x86_64-linux-gnu/libm.so
ctanf@@GLIBC_2.2.5                                /usr/lib/gcc/x86_64-linux-gnu/4.8/../../../x86_64-linux-gnu/libm.so
ctanf@GLIBC_2.2.5                                 /usr/lib/gcc/x86_64-linux-gnu/4.8/../../../x86_64-linux-gnu/libm.so
ctanh                                             /usr/lib/gcc/x86_64-linux-gnu/4.8/../../../x86_64-linux-gnu/libm.so
ctanh@@GLIBC_2.2.5                                /usr/lib/gcc/x86_64-linux-gnu/4.8/../../../x86_64-linux-gnu/libm.so
ctanh@GLIBC_2.2.5                                 /usr/lib/gcc/x86_64-linux-gnu/4.8/../../../x86_64-linux-gnu/libm.so
ctanhf                                            /usr/lib/gcc/x86_64-linux-gnu/4.8/../../../x86_64-linux-gnu/libm.so
ctanhf@@GLIBC_2.2.5                               /usr/lib/gcc/x86_64-linux-gnu/4.8/../../../x86_64-linux-gnu/libm.so
ctanhf@GLIBC_2.2.5                                /usr/lib/gcc/x86_64-linux-gnu/4.8/../../../x86_64-linux-gnu/libm.so
ctanhl                                            /usr/lib/gcc/x86_64-linux-gnu/4.8/../../../x86_64-linux-gnu/libm.so
ctanhl@@GLIBC_2.2.5                               /usr/lib/gcc/x86_64-linux-gnu/4.8/../../../x86_64-linux-gnu/libm.so
ctanhl@GLIBC_2.2.5                                /usr/lib/gcc/x86_64-linux-gnu/4.8/../../../x86_64-linux-gnu/libm.so
ctanl                                             /usr/lib/gcc/x86_64-linux-gnu/4.8/../../../x86_64-linux-gnu/libm.so
ctanl@@GLIBC_2.2.5                                /usr/lib/gcc/x86_64-linux-gnu/4.8/../../../x86_64-linux-gnu/libm.so
ctanl@GLIBC_2.2.5                                 /usr/lib/gcc/x86_64-linux-gnu/4.8/../../../x86_64-linux-gnu/libm.so
data_start                                        /usr/lib/gcc/x86_64-linux-gnu/4.8/../../../x86_64-linux-gnu/crt1.o
daylight                                          /lib/x86_64-linux-gnu/libc.so.6
daylight@@GLIBC_2.2.5                             /lib/x86_64-linux-gnu/libc.so.6
daylight@GLIBC_2.2.5                              /lib/x86_64-linux-gnu/libc.so.6
dcgettext                                         /lib/x86_64-linux-gnu/libc.so.6
dcgettext@@GLIBC_2.2.5                            /lib/x86_64-linux-gnu/libc.so.6
dcgettext@GLIBC_2.2.5                             /lib/x86_64-linux-gnu/libc.so.6
dcngettext                                        /lib/x86_64-linux-gnu/libc.so.6
dcngettext@@GLIBC_2.2.5                           /lib/x86_64-linux-gnu/libc.so.6
dcngettext@GLIBC_2.2.5                            /lib/x86_64-linux-gnu/libc.so.6
devargs_list                                      /root/hpc/x86_64-native-linuxapp-gcc/lib/librte_eal.a(eal_common_devargs.o)
                                                  /root/hpc/x86_64-native-linuxapp-gcc/lib/librte_eal.a(eal_common_dev.o)
dgettext                                          /lib/x86_64-linux-gnu/libc.so.6
dgettext@@GLIBC_2.2.5                             /lib/x86_64-linux-gnu/libc.so.6
dgettext@GLIBC_2.2.5                              /lib/x86_64-linux-gnu/libc.so.6
dirfd                                             /lib/x86_64-linux-gnu/libc.so.6
                                                  /root/hpc/x86_64-native-linuxapp-gcc/lib/librte_eal.a(eal_hugepage_info.o)
dirfd@@GLIBC_2.2.5                                /lib/x86_64-linux-gnu/libc.so.6
dirfd@GLIBC_2.2.5                                 /lib/x86_64-linux-gnu/libc.so.6
dl_iterate_phdr                                   /lib/x86_64-linux-gnu/libc.so.6
dl_iterate_phdr@@GLIBC_2.2.5                      /lib/x86_64-linux-gnu/libc.so.6
dl_iterate_phdr@GLIBC_2.2.5                       /lib/x86_64-linux-gnu/libc.so.6
dlerror                                           /usr/lib/gcc/x86_64-linux-gnu/4.8/../../../x86_64-linux-gnu/libdl.so
                                                  /root/hpc/x86_64-native-linuxapp-gcc/lib/librte_eal.a(eal.o)
dlerror@@GLIBC_2.2.5                              /usr/lib/gcc/x86_64-linux-gnu/4.8/../../../x86_64-linux-gnu/libdl.so
dlerror@GLIBC_2.2.5                               /usr/lib/gcc/x86_64-linux-gnu/4.8/../../../x86_64-linux-gnu/libdl.so
dlopen                                            /usr/lib/gcc/x86_64-linux-gnu/4.8/../../../x86_64-linux-gnu/libdl.so
                                                  /root/hpc/x86_64-native-linuxapp-gcc/lib/librte_eal.a(eal.o)
dlopen@@GLIBC_2.2.5                               /usr/lib/gcc/x86_64-linux-gnu/4.8/../../../x86_64-linux-gnu/libdl.so
dlopen@GLIBC_2.2.5                                /usr/lib/gcc/x86_64-linux-gnu/4.8/../../../x86_64-linux-gnu/libdl.so
dlvsym                                            /usr/lib/gcc/x86_64-linux-gnu/4.8/../../../x86_64-linux-gnu/libdl.so
dlvsym@@GLIBC_2.2.5                               /usr/lib/gcc/x86_64-linux-gnu/4.8/../../../x86_64-linux-gnu/libdl.so
dlvsym@GLIBC_2.2.5                                /usr/lib/gcc/x86_64-linux-gnu/4.8/../../../x86_64-linux-gnu/libdl.so
dngettext                                         /lib/x86_64-linux-gnu/libc.so.6
dngettext@@GLIBC_2.2.5                            /lib/x86_64-linux-gnu/libc.so.6
dngettext@GLIBC_2.2.5                             /lib/x86_64-linux-gnu/libc.so.6
drem                                              /usr/lib/gcc/x86_64-linux-gnu/4.8/../../../x86_64-linux-gnu/libm.so
drem@@GLIBC_2.2.5                                 /usr/lib/gcc/x86_64-linux-gnu/4.8/../../../x86_64-linux-gnu/libm.so
drem@GLIBC_2.2.5                                  /usr/lib/gcc/x86_64-linux-gnu/4.8/../../../x86_64-linux-gnu/libm.so
dremf                                             /usr/lib/gcc/x86_64-linux-gnu/4.8/../../../x86_64-linux-gnu/libm.so
dremf@@GLIBC_2.2.5                                /usr/lib/gcc/x86_64-linux-gnu/4.8/../../../x86_64-linux-gnu/libm.so
dremf@GLIBC_2.2.5                                 /usr/lib/gcc/x86_64-linux-gnu/4.8/../../../x86_64-linux-gnu/libm.so
dreml                                             /usr/lib/gcc/x86_64-linux-gnu/4.8/../../../x86_64-linux-gnu/libm.so
dreml@@GLIBC_2.2.5                                /usr/lib/gcc/x86_64-linux-gnu/4.8/../../../x86_64-linux-gnu/libm.so
dreml@GLIBC_2.2.5                                 /usr/lib/gcc/x86_64-linux-gnu/4.8/../../../x86_64-linux-gnu/libm.so
dup                                               /lib/x86_64-linux-gnu/libc.so.6
dup2                                              /lib/x86_64-linux-gnu/libc.so.6
dup2@@GLIBC_2.2.5                                 /lib/x86_64-linux-gnu/libc.so.6
dup2@GLIBC_2.2.5                                  /lib/x86_64-linux-gnu/libc.so.6
dup3                                              /lib/x86_64-linux-gnu/libc.so.6
dup3@@GLIBC_2.9                                   /lib/x86_64-linux-gnu/libc.so.6
dup3@GLIBC_2.9                                    /lib/x86_64-linux-gnu/libc.so.6
dup@@GLIBC_2.2.5                                  /lib/x86_64-linux-gnu/libc.so.6
dup@GLIBC_2.2.5                                   /lib/x86_64-linux-gnu/libc.so.6
duplocale                                         /lib/x86_64-linux-gnu/libc.so.6
duplocale@@GLIBC_2.3                              /lib/x86_64-linux-gnu/libc.so.6
duplocale@GLIBC_2.3                               /lib/x86_64-linux-gnu/libc.so.6
eaccess                                           /lib/x86_64-linux-gnu/libc.so.6
eaccess@@GLIBC_2.4                                /lib/x86_64-linux-gnu/libc.so.6
eaccess@GLIBC_2.4                                 /lib/x86_64-linux-gnu/libc.so.6
eal_adjust_config                                 /root/hpc/x86_64-native-linuxapp-gcc/lib/librte_eal.a(eal_common_options.o)
                                                  /root/hpc/x86_64-native-linuxapp-gcc/lib/librte_eal.a(eal.o)
eal_check_common_options                          /root/hpc/x86_64-native-linuxapp-gcc/lib/librte_eal.a(eal_common_options.o)
                                                  /root/hpc/x86_64-native-linuxapp-gcc/lib/librte_eal.a(eal.o)
eal_common_usage                                  /root/hpc/x86_64-native-linuxapp-gcc/lib/librte_eal.a(eal_common_options.o)
                                                  /root/hpc/x86_64-native-linuxapp-gcc/lib/librte_eal.a(eal.o)
eal_cpu_socket_id                                 /root/hpc/x86_64-native-linuxapp-gcc/lib/librte_eal.a(eal_lcore.o)
                                                  /root/hpc/x86_64-native-linuxapp-gcc/lib/librte_eal.a(eal_common_thread.o)
eal_cpuset_socket_id                              /root/hpc/x86_64-native-linuxapp-gcc/lib/librte_eal.a(eal_common_thread.o)
eal_hugepage_info_init                            /root/hpc/x86_64-native-linuxapp-gcc/lib/librte_eal.a(eal_hugepage_info.o)
                                                  /root/hpc/x86_64-native-linuxapp-gcc/lib/librte_eal.a(eal.o)
eal_long_options                                  /root/hpc/x86_64-native-linuxapp-gcc/lib/librte_eal.a(eal_common_options.o)
                                                  /root/hpc/x86_64-native-linuxapp-gcc/lib/librte_eal.a(eal.o)
eal_parse_common_option                           /root/hpc/x86_64-native-linuxapp-gcc/lib/librte_eal.a(eal_common_options.o)
                                                  /root/hpc/x86_64-native-linuxapp-gcc/lib/librte_eal.a(eal.o)
eal_parse_sysfs_value                             /root/hpc/x86_64-native-linuxapp-gcc/lib/librte_eal.a(eal.o)
                                                  /root/hpc/x86_64-native-linuxapp-gcc/lib/librte_eal.a(eal_lcore.o)
                                                  /root/hpc/x86_64-native-linuxapp-gcc/lib/librte_eal.a(eal_hugepage_info.o)
eal_proc_type_detect                              /root/hpc/x86_64-native-linuxapp-gcc/lib/librte_eal.a(eal.o)
                                                  /root/hpc/x86_64-native-linuxapp-gcc/lib/librte_eal.a(eal_common_options.o)
eal_reset_internal_config                         /root/hpc/x86_64-native-linuxapp-gcc/lib/librte_eal.a(eal_common_options.o)
                                                  /root/hpc/x86_64-native-linuxapp-gcc/lib/librte_eal.a(eal.o)
eal_short_options                                 /root/hpc/x86_64-native-linuxapp-gcc/lib/librte_eal.a(eal_common_options.o)
                                                  /root/hpc/x86_64-native-linuxapp-gcc/lib/librte_eal.a(eal.o)
eal_thread_dump_affinity                          /root/hpc/x86_64-native-linuxapp-gcc/lib/librte_eal.a(eal_common_thread.o)
                                                  /root/hpc/x86_64-native-linuxapp-gcc/lib/librte_eal.a(eal_thread.o)
                                                  /root/hpc/x86_64-native-linuxapp-gcc/lib/librte_eal.a(eal.o)
eal_thread_init_master                            /root/hpc/x86_64-native-linuxapp-gcc/lib/librte_eal.a(eal_thread.o)
                                                  /root/hpc/x86_64-native-linuxapp-gcc/lib/librte_eal.a(eal.o)
eal_thread_loop                                   /root/hpc/x86_64-native-linuxapp-gcc/lib/librte_eal.a(eal_thread.o)
                                                  /root/hpc/x86_64-native-linuxapp-gcc/lib/librte_eal.a(eal.o)
eal_timer_source                                  /root/hpc/x86_64-native-linuxapp-gcc/lib/librte_eal.a(eal_timer.o)
endmntent                                         /lib/x86_64-linux-gnu/libc.so.6
endmntent@@GLIBC_2.2.5                            /lib/x86_64-linux-gnu/libc.so.6
endmntent@GLIBC_2.2.5                             /lib/x86_64-linux-gnu/libc.so.6
endutent                                          /lib/x86_64-linux-gnu/libc.so.6
endutent@@GLIBC_2.2.5                             /lib/x86_64-linux-gnu/libc.so.6
endutent@GLIBC_2.2.5                              /lib/x86_64-linux-gnu/libc.so.6
environ                                           /lib/x86_64-linux-gnu/libc.so.6
environ@@GLIBC_2.2.5                              /lib/x86_64-linux-gnu/libc.so.6
environ@GLIBC_2.2.5                               /lib/x86_64-linux-gnu/libc.so.6
                                                  /usr/lib/gcc/x86_64-linux-gnu/4.8/../../../x86_64-linux-gnu/libdl.so
erand48_r                                         /lib/x86_64-linux-gnu/libc.so.6
erand48_r@@GLIBC_2.2.5                            /lib/x86_64-linux-gnu/libc.so.6
erand48_r@GLIBC_2.2.5                             /lib/x86_64-linux-gnu/libc.so.6
erf                                               /usr/lib/gcc/x86_64-linux-gnu/4.8/../../../x86_64-linux-gnu/libm.so
erf@@GLIBC_2.2.5                                  /usr/lib/gcc/x86_64-linux-gnu/4.8/../../../x86_64-linux-gnu/libm.so
erf@GLIBC_2.2.5                                   /usr/lib/gcc/x86_64-linux-gnu/4.8/../../../x86_64-linux-gnu/libm.so
erfc                                              /usr/lib/gcc/x86_64-linux-gnu/4.8/../../../x86_64-linux-gnu/libm.so
erfc@@GLIBC_2.2.5                                 /usr/lib/gcc/x86_64-linux-gnu/4.8/../../../x86_64-linux-gnu/libm.so
erfc@GLIBC_2.2.5                                  /usr/lib/gcc/x86_64-linux-gnu/4.8/../../../x86_64-linux-gnu/libm.so
erfcf                                             /usr/lib/gcc/x86_64-linux-gnu/4.8/../../../x86_64-linux-gnu/libm.so
erfcf@@GLIBC_2.2.5                                /usr/lib/gcc/x86_64-linux-gnu/4.8/../../../x86_64-linux-gnu/libm.so
erfcf@GLIBC_2.2.5                                 /usr/lib/gcc/x86_64-linux-gnu/4.8/../../../x86_64-linux-gnu/libm.so
erfcl                                             /usr/lib/gcc/x86_64-linux-gnu/4.8/../../../x86_64-linux-gnu/libm.so
erfcl@@GLIBC_2.2.5                                /usr/lib/gcc/x86_64-linux-gnu/4.8/../../../x86_64-linux-gnu/libm.so
erfcl@GLIBC_2.2.5                                 /usr/lib/gcc/x86_64-linux-gnu/4.8/../../../x86_64-linux-gnu/libm.so
erff                                              /usr/lib/gcc/x86_64-linux-gnu/4.8/../../../x86_64-linux-gnu/libm.so
erff@@GLIBC_2.2.5                                 /usr/lib/gcc/x86_64-linux-gnu/4.8/../../../x86_64-linux-gnu/libm.so
erff@GLIBC_2.2.5                                  /usr/lib/gcc/x86_64-linux-gnu/4.8/../../../x86_64-linux-gnu/libm.so
erfl                                              /usr/lib/gcc/x86_64-linux-gnu/4.8/../../../x86_64-linux-gnu/libm.so
erfl@@GLIBC_2.2.5                                 /usr/lib/gcc/x86_64-linux-gnu/4.8/../../../x86_64-linux-gnu/libm.so
erfl@GLIBC_2.2.5                                  /usr/lib/gcc/x86_64-linux-gnu/4.8/../../../x86_64-linux-gnu/libm.so
error                                             /lib/x86_64-linux-gnu/libc.so.6
error@@GLIBC_2.2.5                                /lib/x86_64-linux-gnu/libc.so.6
error@GLIBC_2.2.5                                 /lib/x86_64-linux-gnu/libc.so.6
error_at_line                                     /lib/x86_64-linux-gnu/libc.so.6
error_at_line@@GLIBC_2.2.5                        /lib/x86_64-linux-gnu/libc.so.6
error_at_line@GLIBC_2.2.5                         /lib/x86_64-linux-gnu/libc.so.6
euidaccess                                        /lib/x86_64-linux-gnu/libc.so.6
euidaccess@@GLIBC_2.2.5                           /lib/x86_64-linux-gnu/libc.so.6
euidaccess@GLIBC_2.2.5                            /lib/x86_64-linux-gnu/libc.so.6
execve                                            /lib/x86_64-linux-gnu/libc.so.6
execve@@GLIBC_2.2.5                               /lib/x86_64-linux-gnu/libc.so.6
execve@GLIBC_2.2.5                                /lib/x86_64-linux-gnu/libc.so.6
execvpe                                           /lib/x86_64-linux-gnu/libc.so.6
execvpe@@GLIBC_2.11                               /lib/x86_64-linux-gnu/libc.so.6
execvpe@GLIBC_2.11                                /lib/x86_64-linux-gnu/libc.so.6
exit                                              /lib/x86_64-linux-gnu/libc.so.6
                                                  /root/hpc/x86_64-native-linuxapp-gcc/lib/librte_eal.a(eal_common_cpuflags.o)
                                                  /root/hpc/x86_64-native-linuxapp-gcc/lib/librte_eal.a(eal_debug.o)
                                                  /root/hpc/x86_64-native-linuxapp-gcc/lib/librte_eal.a(eal.o)
exit@@GLIBC_2.2.5                                 /lib/x86_64-linux-gnu/libc.so.6
exit@GLIBC_2.2.5                                  /lib/x86_64-linux-gnu/libc.so.6
                                                  /lib/x86_64-linux-gnu/libpthread.so.0
exp                                               /usr/lib/gcc/x86_64-linux-gnu/4.8/../../../x86_64-linux-gnu/libm.so
exp10                                             /usr/lib/gcc/x86_64-linux-gnu/4.8/../../../x86_64-linux-gnu/libm.so
exp10@@GLIBC_2.2.5                                /usr/lib/gcc/x86_64-linux-gnu/4.8/../../../x86_64-linux-gnu/libm.so
exp10@GLIBC_2.2.5                                 /usr/lib/gcc/x86_64-linux-gnu/4.8/../../../x86_64-linux-gnu/libm.so
exp10f                                            /usr/lib/gcc/x86_64-linux-gnu/4.8/../../../x86_64-linux-gnu/libm.so
exp10f@@GLIBC_2.2.5                               /usr/lib/gcc/x86_64-linux-gnu/4.8/../../../x86_64-linux-gnu/libm.so
exp10f@GLIBC_2.2.5                                /usr/lib/gcc/x86_64-linux-gnu/4.8/../../../x86_64-linux-gnu/libm.so
exp10l                                            /usr/lib/gcc/x86_64-linux-gnu/4.8/../../../x86_64-linux-gnu/libm.so
exp10l@@GLIBC_2.2.5                               /usr/lib/gcc/x86_64-linux-gnu/4.8/../../../x86_64-linux-gnu/libm.so
exp10l@GLIBC_2.2.5                                /usr/lib/gcc/x86_64-linux-gnu/4.8/../../../x86_64-linux-gnu/libm.so
exp2                                              /usr/lib/gcc/x86_64-linux-gnu/4.8/../../../x86_64-linux-gnu/libm.so
exp2@@GLIBC_2.2.5                                 /usr/lib/gcc/x86_64-linux-gnu/4.8/../../../x86_64-linux-gnu/libm.so
exp2@GLIBC_2.2.5                                  /usr/lib/gcc/x86_64-linux-gnu/4.8/../../../x86_64-linux-gnu/libm.so
exp2f                                             /usr/lib/gcc/x86_64-linux-gnu/4.8/../../../x86_64-linux-gnu/libm.so
exp2f@@GLIBC_2.2.5                                /usr/lib/gcc/x86_64-linux-gnu/4.8/../../../x86_64-linux-gnu/libm.so
exp2f@GLIBC_2.2.5                                 /usr/lib/gcc/x86_64-linux-gnu/4.8/../../../x86_64-linux-gnu/libm.so
exp2l                                             /usr/lib/gcc/x86_64-linux-gnu/4.8/../../../x86_64-linux-gnu/libm.so
exp2l@@GLIBC_2.2.5                                /usr/lib/gcc/x86_64-linux-gnu/4.8/../../../x86_64-linux-gnu/libm.so
exp2l@GLIBC_2.2.5                                 /usr/lib/gcc/x86_64-linux-gnu/4.8/../../../x86_64-linux-gnu/libm.so
exp@@GLIBC_2.2.5                                  /usr/lib/gcc/x86_64-linux-gnu/4.8/../../../x86_64-linux-gnu/libm.so
exp@GLIBC_2.2.5                                   /usr/lib/gcc/x86_64-linux-gnu/4.8/../../../x86_64-linux-gnu/libm.so
expf                                              /usr/lib/gcc/x86_64-linux-gnu/4.8/../../../x86_64-linux-gnu/libm.so
expf@@GLIBC_2.2.5                                 /usr/lib/gcc/x86_64-linux-gnu/4.8/../../../x86_64-linux-gnu/libm.so
expf@GLIBC_2.2.5                                  /usr/lib/gcc/x86_64-linux-gnu/4.8/../../../x86_64-linux-gnu/libm.so
expl                                              /usr/lib/gcc/x86_64-linux-gnu/4.8/../../../x86_64-linux-gnu/libm.so
expl@@GLIBC_2.2.5                                 /usr/lib/gcc/x86_64-linux-gnu/4.8/../../../x86_64-linux-gnu/libm.so
expl@GLIBC_2.2.5                                  /usr/lib/gcc/x86_64-linux-gnu/4.8/../../../x86_64-linux-gnu/libm.so
expm1                                             /usr/lib/gcc/x86_64-linux-gnu/4.8/../../../x86_64-linux-gnu/libm.so
expm1@@GLIBC_2.2.5                                /usr/lib/gcc/x86_64-linux-gnu/4.8/../../../x86_64-linux-gnu/libm.so
expm1@GLIBC_2.2.5                                 /usr/lib/gcc/x86_64-linux-gnu/4.8/../../../x86_64-linux-gnu/libm.so
expm1f                                            /usr/lib/gcc/x86_64-linux-gnu/4.8/../../../x86_64-linux-gnu/libm.so
expm1f@@GLIBC_2.2.5                               /usr/lib/gcc/x86_64-linux-gnu/4.8/../../../x86_64-linux-gnu/libm.so
expm1f@GLIBC_2.2.5                                /usr/lib/gcc/x86_64-linux-gnu/4.8/../../../x86_64-linux-gnu/libm.so
expm1l                                            /usr/lib/gcc/x86_64-linux-gnu/4.8/../../../x86_64-linux-gnu/libm.so
expm1l@@GLIBC_2.2.5                               /usr/lib/gcc/x86_64-linux-gnu/4.8/../../../x86_64-linux-gnu/libm.so
expm1l@GLIBC_2.2.5                                /usr/lib/gcc/x86_64-linux-gnu/4.8/../../../x86_64-linux-gnu/libm.so
fabs                                              /usr/lib/gcc/x86_64-linux-gnu/4.8/../../../x86_64-linux-gnu/libm.so
fabs@@GLIBC_2.2.5                                 /usr/lib/gcc/x86_64-linux-gnu/4.8/../../../x86_64-linux-gnu/libm.so
fabs@GLIBC_2.2.5                                  /usr/lib/gcc/x86_64-linux-gnu/4.8/../../../x86_64-linux-gnu/libm.so
fabsf                                             /usr/lib/gcc/x86_64-linux-gnu/4.8/../../../x86_64-linux-gnu/libm.so
fabsf@@GLIBC_2.2.5                                /usr/lib/gcc/x86_64-linux-gnu/4.8/../../../x86_64-linux-gnu/libm.so
fabsf@GLIBC_2.2.5                                 /usr/lib/gcc/x86_64-linux-gnu/4.8/../../../x86_64-linux-gnu/libm.so
fabsl                                             /usr/lib/gcc/x86_64-linux-gnu/4.8/../../../x86_64-linux-gnu/libm.so
fabsl@@GLIBC_2.2.5                                /usr/lib/gcc/x86_64-linux-gnu/4.8/../../../x86_64-linux-gnu/libm.so
fabsl@GLIBC_2.2.5                                 /usr/lib/gcc/x86_64-linux-gnu/4.8/../../../x86_64-linux-gnu/libm.so
fchdir                                            /lib/x86_64-linux-gnu/libc.so.6
fchdir@@GLIBC_2.2.5                               /lib/x86_64-linux-gnu/libc.so.6
fchdir@GLIBC_2.2.5                                /lib/x86_64-linux-gnu/libc.so.6
fchmod                                            /lib/x86_64-linux-gnu/libc.so.6
fchmod@@GLIBC_2.2.5                               /lib/x86_64-linux-gnu/libc.so.6
fchmod@GLIBC_2.2.5                                /lib/x86_64-linux-gnu/libc.so.6
fchown                                            /lib/x86_64-linux-gnu/libc.so.6
fchown@@GLIBC_2.2.5                               /lib/x86_64-linux-gnu/libc.so.6
fchown@GLIBC_2.2.5                                /lib/x86_64-linux-gnu/libc.so.6
fclose                                            /lib/x86_64-linux-gnu/libc.so.6
                                                  /root/hpc/x86_64-native-linuxapp-gcc/lib/librte_cfgfile.a(rte_cfgfile.o)
                                                  /root/hpc/x86_64-native-linuxapp-gcc/lib/librte_eal.a(eal_timer.o)
                                                  /root/hpc/x86_64-native-linuxapp-gcc/lib/librte_eal.a(eal_memory.o)
                                                  /root/hpc/x86_64-native-linuxapp-gcc/lib/librte_eal.a(eal_hugepage_info.o)
                                                  /root/hpc/x86_64-native-linuxapp-gcc/lib/librte_eal.a(eal.o)
fclose@@GLIBC_2.2.5                               /lib/x86_64-linux-gnu/libc.so.6
fclose@GLIBC_2.2.5                                /lib/x86_64-linux-gnu/libc.so.6
                                                  /lib/x86_64-linux-gnu/libpthread.so.0
fcloseall                                         /lib/x86_64-linux-gnu/libc.so.6
fcloseall@@GLIBC_2.2.5                            /lib/x86_64-linux-gnu/libc.so.6
fcloseall@GLIBC_2.2.5                             /lib/x86_64-linux-gnu/libc.so.6
fcntl                                             /lib/x86_64-linux-gnu/libpthread.so.0
                                                  /root/hpc/x86_64-native-linuxapp-gcc/lib/librte_eal.a(eal.o)
fcntl@@GLIBC_2.2.5                                /lib/x86_64-linux-gnu/libpthread.so.0
                                                  /lib/x86_64-linux-gnu/libc.so.6
fcntl@GLIBC_2.2.5                                 /lib/x86_64-linux-gnu/libpthread.so.0
                                                  /usr/lib/gcc/x86_64-linux-gnu/4.8/../../../x86_64-linux-gnu/librt.so
fdim                                              /usr/lib/gcc/x86_64-linux-gnu/4.8/../../../x86_64-linux-gnu/libm.so
fdim@@GLIBC_2.2.5                                 /usr/lib/gcc/x86_64-linux-gnu/4.8/../../../x86_64-linux-gnu/libm.so
fdim@GLIBC_2.2.5                                  /usr/lib/gcc/x86_64-linux-gnu/4.8/../../../x86_64-linux-gnu/libm.so
fdimf                                             /usr/lib/gcc/x86_64-linux-gnu/4.8/../../../x86_64-linux-gnu/libm.so
fdimf@@GLIBC_2.2.5                                /usr/lib/gcc/x86_64-linux-gnu/4.8/../../../x86_64-linux-gnu/libm.so
fdimf@GLIBC_2.2.5                                 /usr/lib/gcc/x86_64-linux-gnu/4.8/../../../x86_64-linux-gnu/libm.so
fdiml                                             /usr/lib/gcc/x86_64-linux-gnu/4.8/../../../x86_64-linux-gnu/libm.so
fdiml@@GLIBC_2.2.5                                /usr/lib/gcc/x86_64-linux-gnu/4.8/../../../x86_64-linux-gnu/libm.so
fdiml@GLIBC_2.2.5                                 /usr/lib/gcc/x86_64-linux-gnu/4.8/../../../x86_64-linux-gnu/libm.so
fdopendir                                         /lib/x86_64-linux-gnu/libc.so.6
fdopendir@@GLIBC_2.4                              /lib/x86_64-linux-gnu/libc.so.6
fdopendir@GLIBC_2.4                               /lib/x86_64-linux-gnu/libc.so.6
feof                                              /lib/x86_64-linux-gnu/libc.so.6
                                                  /root/hpc/x86_64-native-linuxapp-gcc/lib/librte_eal.a(eal.o)
feof@@GLIBC_2.2.5                                 /lib/x86_64-linux-gnu/libc.so.6
feof@GLIBC_2.2.5                                  /lib/x86_64-linux-gnu/libc.so.6
ferror                                            /lib/x86_64-linux-gnu/libc.so.6
ferror@@GLIBC_2.2.5                               /lib/x86_64-linux-gnu/libc.so.6
ferror@GLIBC_2.2.5                                /lib/x86_64-linux-gnu/libc.so.6
fflush                                            /lib/x86_64-linux-gnu/libc.so.6
                                                  /root/hpc/x86_64-native-linuxapp-gcc/lib/librte_eal.a(eal_common_hexdump.o)
                                                  /root/hpc/x86_64-native-linuxapp-gcc/lib/librte_eal.a(eal_common_log.o)
                                                  /root/hpc/x86_64-native-linuxapp-gcc/lib/librte_eal.a(eal_log.o)
fflush@@GLIBC_2.2.5                               /lib/x86_64-linux-gnu/libc.so.6
fflush@GLIBC_2.2.5                                /lib/x86_64-linux-gnu/libc.so.6
ffsl                                              /lib/x86_64-linux-gnu/libc.so.6
ffsl@@GLIBC_2.2.5                                 /lib/x86_64-linux-gnu/libc.so.6
ffsl@GLIBC_2.2.5                                  /lib/x86_64-linux-gnu/libc.so.6
fgetc                                             /lib/x86_64-linux-gnu/libc.so.6
fgetc@@GLIBC_2.2.5                                /lib/x86_64-linux-gnu/libc.so.6
fgetc@GLIBC_2.2.5                                 /lib/x86_64-linux-gnu/libc.so.6
fgetc_unlocked                                    /lib/x86_64-linux-gnu/libc.so.6
fgetc_unlocked@@GLIBC_2.2.5                       /lib/x86_64-linux-gnu/libc.so.6
fgetc_unlocked@GLIBC_2.2.5                        /lib/x86_64-linux-gnu/libc.so.6
fgetgrent_r                                       /lib/x86_64-linux-gnu/libc.so.6
fgetgrent_r@@GLIBC_2.2.5                          /lib/x86_64-linux-gnu/libc.so.6
fgetgrent_r@GLIBC_2.2.5                           /lib/x86_64-linux-gnu/libc.so.6
fgetpwent_r                                       /lib/x86_64-linux-gnu/libc.so.6
fgetpwent_r@@GLIBC_2.2.5                          /lib/x86_64-linux-gnu/libc.so.6
fgetpwent_r@GLIBC_2.2.5                           /lib/x86_64-linux-gnu/libc.so.6
fgets                                             /lib/x86_64-linux-gnu/libc.so.6
                                                  /root/hpc/x86_64-native-linuxapp-gcc/lib/librte_cfgfile.a(rte_cfgfile.o)
                                                  /root/hpc/x86_64-native-linuxapp-gcc/lib/librte_eal.a(eal_timer.o)
                                                  /root/hpc/x86_64-native-linuxapp-gcc/lib/librte_eal.a(eal_memory.o)
                                                  /root/hpc/x86_64-native-linuxapp-gcc/lib/librte_eal.a(eal_hugepage_info.o)
                                                  /root/hpc/x86_64-native-linuxapp-gcc/lib/librte_eal.a(eal.o)
fgets@@GLIBC_2.2.5                                /lib/x86_64-linux-gnu/libc.so.6
fgets@GLIBC_2.2.5                                 /lib/x86_64-linux-gnu/libc.so.6
fgetsgent_r                                       /lib/x86_64-linux-gnu/libc.so.6
fgetsgent_r@@GLIBC_2.10                           /lib/x86_64-linux-gnu/libc.so.6
fgetsgent_r@GLIBC_2.10                            /lib/x86_64-linux-gnu/libc.so.6
fgetspent_r                                       /lib/x86_64-linux-gnu/libc.so.6
fgetspent_r@@GLIBC_2.2.5                          /lib/x86_64-linux-gnu/libc.so.6
fgetspent_r@GLIBC_2.2.5                           /lib/x86_64-linux-gnu/libc.so.6
fgetwc                                            /lib/x86_64-linux-gnu/libc.so.6
fgetwc@@GLIBC_2.2.5                               /lib/x86_64-linux-gnu/libc.so.6
fgetwc@GLIBC_2.2.5                                /lib/x86_64-linux-gnu/libc.so.6
fgetwc_unlocked                                   /lib/x86_64-linux-gnu/libc.so.6
fgetwc_unlocked@@GLIBC_2.2.5                      /lib/x86_64-linux-gnu/libc.so.6
fgetwc_unlocked@GLIBC_2.2.5                       /lib/x86_64-linux-gnu/libc.so.6
fileno                                            /lib/x86_64-linux-gnu/libc.so.6
                                                  /root/hpc/x86_64-native-linuxapp-gcc/lib/librte_cmdline.a(cmdline_socket.o)
fileno@@GLIBC_2.2.5                               /lib/x86_64-linux-gnu/libc.so.6
fileno@GLIBC_2.2.5                                /lib/x86_64-linux-gnu/libc.so.6
fileno_unlocked                                   /lib/x86_64-linux-gnu/libc.so.6
fileno_unlocked@@GLIBC_2.2.5                      /lib/x86_64-linux-gnu/libc.so.6
fileno_unlocked@GLIBC_2.2.5                       /lib/x86_64-linux-gnu/libc.so.6
finite                                            /usr/lib/gcc/x86_64-linux-gnu/4.8/../../../x86_64-linux-gnu/libm.so
finite@@GLIBC_2.2.5                               /usr/lib/gcc/x86_64-linux-gnu/4.8/../../../x86_64-linux-gnu/libm.so
                                                  /lib/x86_64-linux-gnu/libc.so.6
finite@GLIBC_2.2.5                                /usr/lib/gcc/x86_64-linux-gnu/4.8/../../../x86_64-linux-gnu/libm.so
finitef                                           /usr/lib/gcc/x86_64-linux-gnu/4.8/../../../x86_64-linux-gnu/libm.so
finitef@@GLIBC_2.2.5                              /usr/lib/gcc/x86_64-linux-gnu/4.8/../../../x86_64-linux-gnu/libm.so
                                                  /lib/x86_64-linux-gnu/libc.so.6
finitef@GLIBC_2.2.5                               /usr/lib/gcc/x86_64-linux-gnu/4.8/../../../x86_64-linux-gnu/libm.so
finitel                                           /usr/lib/gcc/x86_64-linux-gnu/4.8/../../../x86_64-linux-gnu/libm.so
finitel@@GLIBC_2.2.5                              /usr/lib/gcc/x86_64-linux-gnu/4.8/../../../x86_64-linux-gnu/libm.so
                                                  /lib/x86_64-linux-gnu/libc.so.6
finitel@GLIBC_2.2.5                               /usr/lib/gcc/x86_64-linux-gnu/4.8/../../../x86_64-linux-gnu/libm.so
flock                                             /lib/x86_64-linux-gnu/libc.so.6
                                                  /root/hpc/x86_64-native-linuxapp-gcc/lib/librte_eal.a(eal_memory.o)
                                                  /root/hpc/x86_64-native-linuxapp-gcc/lib/librte_eal.a(eal_hugepage_info.o)
                                                  /root/hpc/x86_64-native-linuxapp-gcc/lib/librte_eal.a(eal.o)
flock@@GLIBC_2.2.5                                /lib/x86_64-linux-gnu/libc.so.6
flock@GLIBC_2.2.5                                 /lib/x86_64-linux-gnu/libc.so.6
flockfile                                         /lib/x86_64-linux-gnu/libpthread.so.0
flockfile@@GLIBC_2.2.5                            /lib/x86_64-linux-gnu/libpthread.so.0
                                                  /lib/x86_64-linux-gnu/libc.so.6
flockfile@GLIBC_2.2.5                             /lib/x86_64-linux-gnu/libpthread.so.0
floor                                             /usr/lib/gcc/x86_64-linux-gnu/4.8/../../../x86_64-linux-gnu/libm.so
floor@@GLIBC_2.2.5                                /usr/lib/gcc/x86_64-linux-gnu/4.8/../../../x86_64-linux-gnu/libm.so
floor@GLIBC_2.2.5                                 /usr/lib/gcc/x86_64-linux-gnu/4.8/../../../x86_64-linux-gnu/libm.so
floorf                                            /usr/lib/gcc/x86_64-linux-gnu/4.8/../../../x86_64-linux-gnu/libm.so
floorf@@GLIBC_2.2.5                               /usr/lib/gcc/x86_64-linux-gnu/4.8/../../../x86_64-linux-gnu/libm.so
floorf@GLIBC_2.2.5                                /usr/lib/gcc/x86_64-linux-gnu/4.8/../../../x86_64-linux-gnu/libm.so
floorl                                            /usr/lib/gcc/x86_64-linux-gnu/4.8/../../../x86_64-linux-gnu/libm.so
floorl@@GLIBC_2.2.5                               /usr/lib/gcc/x86_64-linux-gnu/4.8/../../../x86_64-linux-gnu/libm.so
floorl@GLIBC_2.2.5                                /usr/lib/gcc/x86_64-linux-gnu/4.8/../../../x86_64-linux-gnu/libm.so
fma                                               /usr/lib/gcc/x86_64-linux-gnu/4.8/../../../x86_64-linux-gnu/libm.so
fma@@GLIBC_2.2.5                                  /usr/lib/gcc/x86_64-linux-gnu/4.8/../../../x86_64-linux-gnu/libm.so
fma@GLIBC_2.2.5                                   /usr/lib/gcc/x86_64-linux-gnu/4.8/../../../x86_64-linux-gnu/libm.so
fmaf                                              /usr/lib/gcc/x86_64-linux-gnu/4.8/../../../x86_64-linux-gnu/libm.so
fmaf@@GLIBC_2.2.5                                 /usr/lib/gcc/x86_64-linux-gnu/4.8/../../../x86_64-linux-gnu/libm.so
fmaf@GLIBC_2.2.5                                  /usr/lib/gcc/x86_64-linux-gnu/4.8/../../../x86_64-linux-gnu/libm.so
fmal                                              /usr/lib/gcc/x86_64-linux-gnu/4.8/../../../x86_64-linux-gnu/libm.so
fmal@@GLIBC_2.2.5                                 /usr/lib/gcc/x86_64-linux-gnu/4.8/../../../x86_64-linux-gnu/libm.so
fmal@GLIBC_2.2.5                                  /usr/lib/gcc/x86_64-linux-gnu/4.8/../../../x86_64-linux-gnu/libm.so
fmax                                              /usr/lib/gcc/x86_64-linux-gnu/4.8/../../../x86_64-linux-gnu/libm.so
fmax@@GLIBC_2.2.5                                 /usr/lib/gcc/x86_64-linux-gnu/4.8/../../../x86_64-linux-gnu/libm.so
fmax@GLIBC_2.2.5                                  /usr/lib/gcc/x86_64-linux-gnu/4.8/../../../x86_64-linux-gnu/libm.so
fmaxf                                             /usr/lib/gcc/x86_64-linux-gnu/4.8/../../../x86_64-linux-gnu/libm.so
fmaxf@@GLIBC_2.2.5                                /usr/lib/gcc/x86_64-linux-gnu/4.8/../../../x86_64-linux-gnu/libm.so
fmaxf@GLIBC_2.2.5                                 /usr/lib/gcc/x86_64-linux-gnu/4.8/../../../x86_64-linux-gnu/libm.so
fmaxl                                             /usr/lib/gcc/x86_64-linux-gnu/4.8/../../../x86_64-linux-gnu/libm.so
fmaxl@@GLIBC_2.2.5                                /usr/lib/gcc/x86_64-linux-gnu/4.8/../../../x86_64-linux-gnu/libm.so
fmaxl@GLIBC_2.2.5                                 /usr/lib/gcc/x86_64-linux-gnu/4.8/../../../x86_64-linux-gnu/libm.so
fmin                                              /usr/lib/gcc/x86_64-linux-gnu/4.8/../../../x86_64-linux-gnu/libm.so
fmin@@GLIBC_2.2.5                                 /usr/lib/gcc/x86_64-linux-gnu/4.8/../../../x86_64-linux-gnu/libm.so
fmin@GLIBC_2.2.5                                  /usr/lib/gcc/x86_64-linux-gnu/4.8/../../../x86_64-linux-gnu/libm.so
fminf                                             /usr/lib/gcc/x86_64-linux-gnu/4.8/../../../x86_64-linux-gnu/libm.so
fminf@@GLIBC_2.2.5                                /usr/lib/gcc/x86_64-linux-gnu/4.8/../../../x86_64-linux-gnu/libm.so
fminf@GLIBC_2.2.5                                 /usr/lib/gcc/x86_64-linux-gnu/4.8/../../../x86_64-linux-gnu/libm.so
fminl                                             /usr/lib/gcc/x86_64-linux-gnu/4.8/../../../x86_64-linux-gnu/libm.so
fminl@@GLIBC_2.2.5                                /usr/lib/gcc/x86_64-linux-gnu/4.8/../../../x86_64-linux-gnu/libm.so
fminl@GLIBC_2.2.5                                 /usr/lib/gcc/x86_64-linux-gnu/4.8/../../../x86_64-linux-gnu/libm.so
fmod                                              /usr/lib/gcc/x86_64-linux-gnu/4.8/../../../x86_64-linux-gnu/libm.so
fmod@@GLIBC_2.2.5                                 /usr/lib/gcc/x86_64-linux-gnu/4.8/../../../x86_64-linux-gnu/libm.so
fmod@GLIBC_2.2.5                                  /usr/lib/gcc/x86_64-linux-gnu/4.8/../../../x86_64-linux-gnu/libm.so
fmodf                                             /usr/lib/gcc/x86_64-linux-gnu/4.8/../../../x86_64-linux-gnu/libm.so
fmodf@@GLIBC_2.2.5                                /usr/lib/gcc/x86_64-linux-gnu/4.8/../../../x86_64-linux-gnu/libm.so
fmodf@GLIBC_2.2.5                                 /usr/lib/gcc/x86_64-linux-gnu/4.8/../../../x86_64-linux-gnu/libm.so
fmodl                                             /usr/lib/gcc/x86_64-linux-gnu/4.8/../../../x86_64-linux-gnu/libm.so
fmodl@@GLIBC_2.2.5                                /usr/lib/gcc/x86_64-linux-gnu/4.8/../../../x86_64-linux-gnu/libm.so
fmodl@GLIBC_2.2.5                                 /usr/lib/gcc/x86_64-linux-gnu/4.8/../../../x86_64-linux-gnu/libm.so
fnmatch                                           /lib/x86_64-linux-gnu/libc.so.6
                                                  /root/hpc/x86_64-native-linuxapp-gcc/lib/librte_eal.a(eal_hugepage_info.o)
fnmatch@@GLIBC_2.2.5                              /lib/x86_64-linux-gnu/libc.so.6
fnmatch@GLIBC_2.2.5                               /lib/x86_64-linux-gnu/libc.so.6
fopen                                             /lib/x86_64-linux-gnu/libc.so.6
                                                  /root/hpc/x86_64-native-linuxapp-gcc/lib/librte_cfgfile.a(rte_cfgfile.o)
                                                  /root/hpc/x86_64-native-linuxapp-gcc/lib/librte_eal.a(eal_timer.o)
                                                  /root/hpc/x86_64-native-linuxapp-gcc/lib/librte_eal.a(eal_hugepage_info.o)
                                                  /root/hpc/x86_64-native-linuxapp-gcc/lib/librte_eal.a(eal.o)
fopen64                                           /lib/x86_64-linux-gnu/libc.so.6
                                                  /root/hpc/x86_64-native-linuxapp-gcc/lib/librte_eal.a(eal_memory.o)
fopen64@@GLIBC_2.2.5                              /lib/x86_64-linux-gnu/libc.so.6
fopen64@GLIBC_2.2.5                               /lib/x86_64-linux-gnu/libc.so.6
fopen@@GLIBC_2.2.5                                /lib/x86_64-linux-gnu/libc.so.6
fopen@GLIBC_2.2.5                                 /lib/x86_64-linux-gnu/libc.so.6
                                                  /lib/x86_64-linux-gnu/libpthread.so.0
fopencookie                                       /lib/x86_64-linux-gnu/libc.so.6
                                                  /root/hpc/x86_64-native-linuxapp-gcc/lib/librte_eal.a(eal_log.o)
fopencookie@@GLIBC_2.2.5                          /lib/x86_64-linux-gnu/libc.so.6
fopencookie@GLIBC_2.2.5                           /lib/x86_64-linux-gnu/libc.so.6
fpathconf                                         /lib/x86_64-linux-gnu/libc.so.6
fpathconf@@GLIBC_2.2.5                            /lib/x86_64-linux-gnu/libc.so.6
fpathconf@GLIBC_2.2.5                             /lib/x86_64-linux-gnu/libc.so.6
fputc                                             /lib/x86_64-linux-gnu/libc.so.6
                                                  /root/hpc/x86_64-native-linuxapp-gcc/lib/librte_eal.a(eal_common_hexdump.o)
fputc@@GLIBC_2.2.5                                /lib/x86_64-linux-gnu/libc.so.6
fputc@GLIBC_2.2.5                                 /lib/x86_64-linux-gnu/libc.so.6
fputs                                             /lib/x86_64-linux-gnu/libc.so.6
                                                  /root/hpc/x86_64-native-linuxapp-gcc/lib/librte_eal.a(eal_common_hexdump.o)
fputs@@GLIBC_2.2.5                                /lib/x86_64-linux-gnu/libc.so.6
fputs@GLIBC_2.2.5                                 /lib/x86_64-linux-gnu/libc.so.6
                                                  /usr/lib/gcc/x86_64-linux-gnu/4.8/../../../x86_64-linux-gnu/libm.so
fread                                             /lib/x86_64-linux-gnu/libc.so.6
fread@@GLIBC_2.2.5                                /lib/x86_64-linux-gnu/libc.so.6
fread@GLIBC_2.2.5                                 /lib/x86_64-linux-gnu/libc.so.6
free                                              /lib/x86_64-linux-gnu/libc.so.6
                                                  /root/hpc/x86_64-native-linuxapp-gcc/lib/librte_cfgfile.a(rte_cfgfile.o)
                                                  /root/hpc/x86_64-native-linuxapp-gcc/lib/librte_cmdline.a(cmdline.o)
                                                  /root/hpc/x86_64-native-linuxapp-gcc/lib/librte_eal.a(eal_common_devargs.o)
                                                  /root/hpc/x86_64-native-linuxapp-gcc/lib/librte_eal.a(eal_memory.o)
                                                  commands.o
free@@GLIBC_2.2.5                                 /lib/x86_64-linux-gnu/libc.so.6
                                                  /lib/x86_64-linux-gnu/ld-linux-x86-64.so.2
free@GLIBC_2.2.5                                  /lib/x86_64-linux-gnu/libc.so.6
                                                  /lib/x86_64-linux-gnu/libpthread.so.0
                                                  /usr/lib/gcc/x86_64-linux-gnu/4.8/../../../x86_64-linux-gnu/libdl.so
                                                  /usr/lib/gcc/x86_64-linux-gnu/4.8/../../../x86_64-linux-gnu/librt.so
freelocale                                        /lib/x86_64-linux-gnu/libc.so.6
freelocale@@GLIBC_2.3                             /lib/x86_64-linux-gnu/libc.so.6
freelocale@GLIBC_2.3                              /lib/x86_64-linux-gnu/libc.so.6
frexp                                             /usr/lib/gcc/x86_64-linux-gnu/4.8/../../../x86_64-linux-gnu/libm.so
frexp@@GLIBC_2.2.5                                /usr/lib/gcc/x86_64-linux-gnu/4.8/../../../x86_64-linux-gnu/libm.so
                                                  /lib/x86_64-linux-gnu/libc.so.6
frexp@GLIBC_2.2.5                                 /usr/lib/gcc/x86_64-linux-gnu/4.8/../../../x86_64-linux-gnu/libm.so
frexpf                                            /usr/lib/gcc/x86_64-linux-gnu/4.8/../../../x86_64-linux-gnu/libm.so
frexpf@@GLIBC_2.2.5                               /usr/lib/gcc/x86_64-linux-gnu/4.8/../../../x86_64-linux-gnu/libm.so
                                                  /lib/x86_64-linux-gnu/libc.so.6
frexpf@GLIBC_2.2.5                                /usr/lib/gcc/x86_64-linux-gnu/4.8/../../../x86_64-linux-gnu/libm.so
frexpl                                            /usr/lib/gcc/x86_64-linux-gnu/4.8/../../../x86_64-linux-gnu/libm.so
frexpl@@GLIBC_2.2.5                               /usr/lib/gcc/x86_64-linux-gnu/4.8/../../../x86_64-linux-gnu/libm.so
                                                  /lib/x86_64-linux-gnu/libc.so.6
frexpl@GLIBC_2.2.5                                /usr/lib/gcc/x86_64-linux-gnu/4.8/../../../x86_64-linux-gnu/libm.so
fscanf                                            /lib/x86_64-linux-gnu/libc.so.6
                                                  /root/hpc/x86_64-native-linuxapp-gcc/lib/librte_eal.a(eal.o)
fscanf@@GLIBC_2.2.5                               /lib/x86_64-linux-gnu/libc.so.6
fscanf@GLIBC_2.2.5                                /lib/x86_64-linux-gnu/libc.so.6
fseeko64                                          /lib/x86_64-linux-gnu/libc.so.6
fseeko64@@GLIBC_2.2.5                             /lib/x86_64-linux-gnu/libc.so.6
fseeko64@GLIBC_2.2.5                              /lib/x86_64-linux-gnu/libc.so.6
fstatfs                                           /lib/x86_64-linux-gnu/libc.so.6
fstatfs64                                         /lib/x86_64-linux-gnu/libc.so.6
fstatfs64@@GLIBC_2.2.5                            /lib/x86_64-linux-gnu/libc.so.6
fstatfs64@GLIBC_2.2.5                             /lib/x86_64-linux-gnu/libc.so.6
fstatfs@@GLIBC_2.2.5                              /lib/x86_64-linux-gnu/libc.so.6
fstatfs@GLIBC_2.2.5                               /lib/x86_64-linux-gnu/libc.so.6
fstatvfs64                                        /lib/x86_64-linux-gnu/libc.so.6
fstatvfs64@@GLIBC_2.2.5                           /lib/x86_64-linux-gnu/libc.so.6
fstatvfs64@GLIBC_2.2.5                            /lib/x86_64-linux-gnu/libc.so.6
fsync                                             /lib/x86_64-linux-gnu/libpthread.so.0
fsync@@GLIBC_2.2.5                                /lib/x86_64-linux-gnu/libpthread.so.0
                                                  /lib/x86_64-linux-gnu/libc.so.6
fsync@GLIBC_2.2.5                                 /lib/x86_64-linux-gnu/libpthread.so.0
                                                  /usr/lib/gcc/x86_64-linux-gnu/4.8/../../../x86_64-linux-gnu/librt.so
ftell                                             /lib/x86_64-linux-gnu/libc.so.6
ftell@@GLIBC_2.2.5                                /lib/x86_64-linux-gnu/libc.so.6
ftell@GLIBC_2.2.5                                 /lib/x86_64-linux-gnu/libc.so.6
ftello64                                          /lib/x86_64-linux-gnu/libc.so.6
ftello64@@GLIBC_2.2.5                             /lib/x86_64-linux-gnu/libc.so.6
ftello64@GLIBC_2.2.5                              /lib/x86_64-linux-gnu/libc.so.6
ftruncate                                         /lib/x86_64-linux-gnu/libc.so.6
                                                  /root/hpc/x86_64-native-linuxapp-gcc/lib/librte_eal.a(eal.o)
ftruncate64                                       /lib/x86_64-linux-gnu/libc.so.6
                                                  /root/hpc/x86_64-native-linuxapp-gcc/lib/librte_eal.a(eal_memory.o)
ftruncate64@@GLIBC_2.2.5                          /lib/x86_64-linux-gnu/libc.so.6
ftruncate64@GLIBC_2.2.5                           /lib/x86_64-linux-gnu/libc.so.6
ftruncate@@GLIBC_2.2.5                            /lib/x86_64-linux-gnu/libc.so.6
ftruncate@GLIBC_2.2.5                             /lib/x86_64-linux-gnu/libc.so.6
ftrylockfile                                      /lib/x86_64-linux-gnu/libpthread.so.0
ftrylockfile@@GLIBC_2.2.5                         /lib/x86_64-linux-gnu/libpthread.so.0
                                                  /lib/x86_64-linux-gnu/libc.so.6
ftrylockfile@GLIBC_2.2.5                          /lib/x86_64-linux-gnu/libpthread.so.0
ftw64                                             /lib/x86_64-linux-gnu/libc.so.6
ftw64@@GLIBC_2.2.5                                /lib/x86_64-linux-gnu/libc.so.6
ftw64@GLIBC_2.2.5                                 /lib/x86_64-linux-gnu/libc.so.6
funlockfile                                       /lib/x86_64-linux-gnu/libpthread.so.0
funlockfile@@GLIBC_2.2.5                          /lib/x86_64-linux-gnu/libpthread.so.0
                                                  /lib/x86_64-linux-gnu/libc.so.6
funlockfile@GLIBC_2.2.5                           /lib/x86_64-linux-gnu/libpthread.so.0
futimes                                           /lib/x86_64-linux-gnu/libc.so.6
futimes@@GLIBC_2.3                                /lib/x86_64-linux-gnu/libc.so.6
futimes@GLIBC_2.3                                 /lib/x86_64-linux-gnu/libc.so.6
fwprintf                                          /lib/x86_64-linux-gnu/libc.so.6
fwprintf@@GLIBC_2.2.5                             /lib/x86_64-linux-gnu/libc.so.6
fwprintf@GLIBC_2.2.5                              /lib/x86_64-linux-gnu/libc.so.6
fwrite                                            /lib/x86_64-linux-gnu/libc.so.6
                                                  /root/hpc/x86_64-native-linuxapp-gcc/lib/librte_eal.a(eal_common_devargs.o)
                                                  /root/hpc/x86_64-native-linuxapp-gcc/lib/librte_eal.a(eal_common_log.o)
                                                  /root/hpc/x86_64-native-linuxapp-gcc/lib/librte_eal.a(eal_log.o)
                                                  /root/hpc/x86_64-native-linuxapp-gcc/lib/librte_ring.a(rte_ring.o)
                                                  /root/hpc/x86_64-native-linuxapp-gcc/lib/librte_mempool.a(rte_mempool.o)
fwrite@@GLIBC_2.2.5                               /lib/x86_64-linux-gnu/libc.so.6
fwrite@GLIBC_2.2.5                                /lib/x86_64-linux-gnu/libc.so.6
                                                  /usr/lib/gcc/x86_64-linux-gnu/4.8/../../../x86_64-linux-gnu/libm.so
gamma                                             /usr/lib/gcc/x86_64-linux-gnu/4.8/../../../x86_64-linux-gnu/libm.so
gamma@@GLIBC_2.2.5                                /usr/lib/gcc/x86_64-linux-gnu/4.8/../../../x86_64-linux-gnu/libm.so
gamma@GLIBC_2.2.5                                 /usr/lib/gcc/x86_64-linux-gnu/4.8/../../../x86_64-linux-gnu/libm.so
gammaf                                            /usr/lib/gcc/x86_64-linux-gnu/4.8/../../../x86_64-linux-gnu/libm.so
gammaf@@GLIBC_2.2.5                               /usr/lib/gcc/x86_64-linux-gnu/4.8/../../../x86_64-linux-gnu/libm.so
gammaf@GLIBC_2.2.5                                /usr/lib/gcc/x86_64-linux-gnu/4.8/../../../x86_64-linux-gnu/libm.so
gammal                                            /usr/lib/gcc/x86_64-linux-gnu/4.8/../../../x86_64-linux-gnu/libm.so
gammal@@GLIBC_2.2.5                               /usr/lib/gcc/x86_64-linux-gnu/4.8/../../../x86_64-linux-gnu/libm.so
gammal@GLIBC_2.2.5                                /usr/lib/gcc/x86_64-linux-gnu/4.8/../../../x86_64-linux-gnu/libm.so
get_avphys_pages                                  /lib/x86_64-linux-gnu/libc.so.6
get_avphys_pages@@GLIBC_2.2.5                     /lib/x86_64-linux-gnu/libc.so.6
get_avphys_pages@GLIBC_2.2.5                      /lib/x86_64-linux-gnu/libc.so.6
get_help_obj_list                                 parse_obj_list.o
get_nprocs                                        /lib/x86_64-linux-gnu/libc.so.6
get_nprocs@@GLIBC_2.2.5                           /lib/x86_64-linux-gnu/libc.so.6
get_nprocs@GLIBC_2.2.5                            /lib/x86_64-linux-gnu/libc.so.6
get_nprocs_conf                                   /lib/x86_64-linux-gnu/libc.so.6
get_nprocs_conf@@GLIBC_2.2.5                      /lib/x86_64-linux-gnu/libc.so.6
get_nprocs_conf@GLIBC_2.2.5                       /lib/x86_64-linux-gnu/libc.so.6
get_phys_pages                                    /lib/x86_64-linux-gnu/libc.so.6
get_phys_pages@@GLIBC_2.2.5                       /lib/x86_64-linux-gnu/libc.so.6
get_phys_pages@GLIBC_2.2.5                        /lib/x86_64-linux-gnu/libc.so.6
getauxval                                         /lib/x86_64-linux-gnu/libc.so.6
getauxval@@GLIBC_2.16                             /lib/x86_64-linux-gnu/libc.so.6
getauxval@GLIBC_2.16                              /lib/x86_64-linux-gnu/libc.so.6
getc                                              /lib/x86_64-linux-gnu/libc.so.6
getc@@GLIBC_2.2.5                                 /lib/x86_64-linux-gnu/libc.so.6
getc@GLIBC_2.2.5                                  /lib/x86_64-linux-gnu/libc.so.6
getc_unlocked                                     /lib/x86_64-linux-gnu/libc.so.6
getc_unlocked@@GLIBC_2.2.5                        /lib/x86_64-linux-gnu/libc.so.6
getc_unlocked@GLIBC_2.2.5                         /lib/x86_64-linux-gnu/libc.so.6
getcontext                                        /lib/x86_64-linux-gnu/libc.so.6
getcontext@@GLIBC_2.2.5                           /lib/x86_64-linux-gnu/libc.so.6
getcontext@GLIBC_2.2.5                            /lib/x86_64-linux-gnu/libc.so.6
getcwd                                            /lib/x86_64-linux-gnu/libc.so.6
getcwd@@GLIBC_2.2.5                               /lib/x86_64-linux-gnu/libc.so.6
getcwd@GLIBC_2.2.5                                /lib/x86_64-linux-gnu/libc.so.6
getdate_r                                         /lib/x86_64-linux-gnu/libc.so.6
getdate_r@@GLIBC_2.2.5                            /lib/x86_64-linux-gnu/libc.so.6
getdate_r@GLIBC_2.2.5                             /lib/x86_64-linux-gnu/libc.so.6
getdelim                                          /lib/x86_64-linux-gnu/libc.so.6
getdelim@@GLIBC_2.2.5                             /lib/x86_64-linux-gnu/libc.so.6
getdelim@GLIBC_2.2.5                              /lib/x86_64-linux-gnu/libc.so.6
getdirentries64                                   /lib/x86_64-linux-gnu/libc.so.6
getdirentries64@@GLIBC_2.2.5                      /lib/x86_64-linux-gnu/libc.so.6
getdirentries64@GLIBC_2.2.5                       /lib/x86_64-linux-gnu/libc.so.6
getdtablesize                                     /lib/x86_64-linux-gnu/libc.so.6
getdtablesize@@GLIBC_2.2.5                        /lib/x86_64-linux-gnu/libc.so.6
getdtablesize@GLIBC_2.2.5                         /lib/x86_64-linux-gnu/libc.so.6
getegid                                           /lib/x86_64-linux-gnu/libc.so.6
getegid@@GLIBC_2.2.5                              /lib/x86_64-linux-gnu/libc.so.6
getegid@GLIBC_2.2.5                               /lib/x86_64-linux-gnu/libc.so.6
getenv                                            /lib/x86_64-linux-gnu/libc.so.6
                                                  /root/hpc/x86_64-native-linuxapp-gcc/lib/librte_eal.a(eal_memory.o)
                                                  /root/hpc/x86_64-native-linuxapp-gcc/lib/librte_eal.a(eal.o)
getenv@@GLIBC_2.2.5                               /lib/x86_64-linux-gnu/libc.so.6
getenv@GLIBC_2.2.5                                /lib/x86_64-linux-gnu/libc.so.6
geteuid                                           /lib/x86_64-linux-gnu/libc.so.6
geteuid@@GLIBC_2.2.5                              /lib/x86_64-linux-gnu/libc.so.6
geteuid@GLIBC_2.2.5                               /lib/x86_64-linux-gnu/libc.so.6
getgid                                            /lib/x86_64-linux-gnu/libc.so.6
getgid@@GLIBC_2.2.5                               /lib/x86_64-linux-gnu/libc.so.6
getgid@GLIBC_2.2.5                                /lib/x86_64-linux-gnu/libc.so.6
getgroups                                         /lib/x86_64-linux-gnu/libc.so.6
getgroups@@GLIBC_2.2.5                            /lib/x86_64-linux-gnu/libc.so.6
getgroups@GLIBC_2.2.5                             /lib/x86_64-linux-gnu/libc.so.6
gethostname                                       /lib/x86_64-linux-gnu/libc.so.6
gethostname@@GLIBC_2.2.5                          /lib/x86_64-linux-gnu/libc.so.6
gethostname@GLIBC_2.2.5                           /lib/x86_64-linux-gnu/libc.so.6
getitimer                                         /lib/x86_64-linux-gnu/libc.so.6
getitimer@@GLIBC_2.2.5                            /lib/x86_64-linux-gnu/libc.so.6
getitimer@GLIBC_2.2.5                             /lib/x86_64-linux-gnu/libc.so.6
getline                                           /lib/x86_64-linux-gnu/libc.so.6
getline@@GLIBC_2.2.5                              /lib/x86_64-linux-gnu/libc.so.6
getline@GLIBC_2.2.5                               /lib/x86_64-linux-gnu/libc.so.6
getmntent_r                                       /lib/x86_64-linux-gnu/libc.so.6
getmntent_r@@GLIBC_2.2.5                          /lib/x86_64-linux-gnu/libc.so.6
getmntent_r@GLIBC_2.2.5                           /lib/x86_64-linux-gnu/libc.so.6
getnetgrent_r                                     /lib/x86_64-linux-gnu/libc.so.6
getnetgrent_r@@GLIBC_2.2.5                        /lib/x86_64-linux-gnu/libc.so.6
getnetgrent_r@GLIBC_2.2.5                         /lib/x86_64-linux-gnu/libc.so.6
getopt_long                                       /lib/x86_64-linux-gnu/libc.so.6
                                                  /root/hpc/x86_64-native-linuxapp-gcc/lib/librte_eal.a(eal.o)
getopt_long@@GLIBC_2.2.5                          /lib/x86_64-linux-gnu/libc.so.6
getopt_long@GLIBC_2.2.5                           /lib/x86_64-linux-gnu/libc.so.6
getpagesize                                       /lib/x86_64-linux-gnu/libc.so.6
                                                  /root/hpc/x86_64-native-linuxapp-gcc/lib/librte_eal.a(eal_memory.o)
                                                  /root/hpc/x86_64-native-linuxapp-gcc/lib/librte_mempool.a(rte_mempool.o)
getpagesize@@GLIBC_2.2.5                          /lib/x86_64-linux-gnu/libc.so.6
getpagesize@GLIBC_2.2.5                           /lib/x86_64-linux-gnu/libc.so.6
getpeername                                       /lib/x86_64-linux-gnu/libc.so.6
getpeername@@GLIBC_2.2.5                          /lib/x86_64-linux-gnu/libc.so.6
getpeername@GLIBC_2.2.5                           /lib/x86_64-linux-gnu/libc.so.6
getpgid                                           /lib/x86_64-linux-gnu/libc.so.6
getpgid@@GLIBC_2.2.5                              /lib/x86_64-linux-gnu/libc.so.6
getpgid@GLIBC_2.2.5                               /lib/x86_64-linux-gnu/libc.so.6
getppid                                           /lib/x86_64-linux-gnu/libc.so.6
getppid@@GLIBC_2.2.5                              /lib/x86_64-linux-gnu/libc.so.6
getppid@GLIBC_2.2.5                               /lib/x86_64-linux-gnu/libc.so.6
getpt                                             /lib/x86_64-linux-gnu/libc.so.6
getpt@@GLIBC_2.2.5                                /lib/x86_64-linux-gnu/libc.so.6
getpt@GLIBC_2.2.5                                 /lib/x86_64-linux-gnu/libc.so.6
getpw                                             /lib/x86_64-linux-gnu/libc.so.6
getpw@@GLIBC_2.2.5                                /lib/x86_64-linux-gnu/libc.so.6
getpw@GLIBC_2.2.5                                 /lib/x86_64-linux-gnu/libc.so.6
getrlimit                                         /lib/x86_64-linux-gnu/libc.so.6
getrlimit64                                       /lib/x86_64-linux-gnu/libc.so.6
getrlimit64@@GLIBC_2.2.5                          /lib/x86_64-linux-gnu/libc.so.6
getrlimit64@GLIBC_2.2.5                           /lib/x86_64-linux-gnu/libc.so.6
getrlimit@@GLIBC_2.2.5                            /lib/x86_64-linux-gnu/libc.so.6
getrlimit@GLIBC_2.2.5                             /lib/x86_64-linux-gnu/libc.so.6
                                                  /lib/x86_64-linux-gnu/libpthread.so.0
getrusage                                         /lib/x86_64-linux-gnu/libc.so.6
getrusage@@GLIBC_2.2.5                            /lib/x86_64-linux-gnu/libc.so.6
getrusage@GLIBC_2.2.5                             /lib/x86_64-linux-gnu/libc.so.6
gets                                              /lib/x86_64-linux-gnu/libc.so.6
gets@@GLIBC_2.2.5                                 /lib/x86_64-linux-gnu/libc.so.6
gets@GLIBC_2.2.5                                  /lib/x86_64-linux-gnu/libc.so.6
getsockname                                       /lib/x86_64-linux-gnu/libc.so.6
getsockname@@GLIBC_2.2.5                          /lib/x86_64-linux-gnu/libc.so.6
getsockname@GLIBC_2.2.5                           /lib/x86_64-linux-gnu/libc.so.6
getsockopt                                        /lib/x86_64-linux-gnu/libc.so.6
getsockopt@@GLIBC_2.2.5                           /lib/x86_64-linux-gnu/libc.so.6
getsockopt@GLIBC_2.2.5                            /lib/x86_64-linux-gnu/libc.so.6
gettext                                           /lib/x86_64-linux-gnu/libc.so.6
gettext@@GLIBC_2.2.5                              /lib/x86_64-linux-gnu/libc.so.6
gettext@GLIBC_2.2.5                               /lib/x86_64-linux-gnu/libc.so.6
gettimeofday                                      /lib/x86_64-linux-gnu/libc.so.6
gettimeofday@@GLIBC_2.2.5                         /lib/x86_64-linux-gnu/libc.so.6
gettimeofday@GLIBC_2.2.5                          /lib/x86_64-linux-gnu/libc.so.6
                                                  /usr/lib/gcc/x86_64-linux-gnu/4.8/../../../x86_64-linux-gnu/librt.so
getuid                                            /lib/x86_64-linux-gnu/libc.so.6
                                                  /root/hpc/x86_64-native-linuxapp-gcc/lib/librte_eal.a(eal_memory.o)
                                                  /root/hpc/x86_64-native-linuxapp-gcc/lib/librte_eal.a(eal.o)
getuid@@GLIBC_2.2.5                               /lib/x86_64-linux-gnu/libc.so.6
getuid@GLIBC_2.2.5                                /lib/x86_64-linux-gnu/libc.so.6
                                                  /lib/x86_64-linux-gnu/libpthread.so.0
                                                  /usr/lib/gcc/x86_64-linux-gnu/4.8/../../../x86_64-linux-gnu/librt.so
getutent                                          /lib/x86_64-linux-gnu/libc.so.6
getutent@@GLIBC_2.2.5                             /lib/x86_64-linux-gnu/libc.so.6
getutent@GLIBC_2.2.5                              /lib/x86_64-linux-gnu/libc.so.6
getutent_r                                        /lib/x86_64-linux-gnu/libc.so.6
getutent_r@@GLIBC_2.2.5                           /lib/x86_64-linux-gnu/libc.so.6
getutent_r@GLIBC_2.2.5                            /lib/x86_64-linux-gnu/libc.so.6
getutid                                           /lib/x86_64-linux-gnu/libc.so.6
getutid@@GLIBC_2.2.5                              /lib/x86_64-linux-gnu/libc.so.6
getutid@GLIBC_2.2.5                               /lib/x86_64-linux-gnu/libc.so.6
getutid_r                                         /lib/x86_64-linux-gnu/libc.so.6
getutid_r@@GLIBC_2.2.5                            /lib/x86_64-linux-gnu/libc.so.6
getutid_r@GLIBC_2.2.5                             /lib/x86_64-linux-gnu/libc.so.6
getutline                                         /lib/x86_64-linux-gnu/libc.so.6
getutline@@GLIBC_2.2.5                            /lib/x86_64-linux-gnu/libc.so.6
getutline@GLIBC_2.2.5                             /lib/x86_64-linux-gnu/libc.so.6
getutline_r                                       /lib/x86_64-linux-gnu/libc.so.6
getutline_r@@GLIBC_2.2.5                          /lib/x86_64-linux-gnu/libc.so.6
getutline_r@GLIBC_2.2.5                           /lib/x86_64-linux-gnu/libc.so.6
getwc                                             /lib/x86_64-linux-gnu/libc.so.6
getwc@@GLIBC_2.2.5                                /lib/x86_64-linux-gnu/libc.so.6
getwc@GLIBC_2.2.5                                 /lib/x86_64-linux-gnu/libc.so.6
getwc_unlocked                                    /lib/x86_64-linux-gnu/libc.so.6
getwc_unlocked@@GLIBC_2.2.5                       /lib/x86_64-linux-gnu/libc.so.6
getwc_unlocked@GLIBC_2.2.5                        /lib/x86_64-linux-gnu/libc.so.6
glob64                                            /lib/x86_64-linux-gnu/libc.so.6
glob64@@GLIBC_2.2.5                               /lib/x86_64-linux-gnu/libc.so.6
glob64@GLIBC_2.2.5                                /lib/x86_64-linux-gnu/libc.so.6
glob_pattern_p                                    /lib/x86_64-linux-gnu/libc.so.6
glob_pattern_p@@GLIBC_2.2.5                       /lib/x86_64-linux-gnu/libc.so.6
glob_pattern_p@GLIBC_2.2.5                        /lib/x86_64-linux-gnu/libc.so.6
global_obj_list                                   commands.o
globfree64                                        /lib/x86_64-linux-gnu/libc.so.6
globfree64@@GLIBC_2.2.5                           /lib/x86_64-linux-gnu/libc.so.6
globfree64@GLIBC_2.2.5                            /lib/x86_64-linux-gnu/libc.so.6
gmtime_r                                          /lib/x86_64-linux-gnu/libc.so.6
gmtime_r@@GLIBC_2.2.5                             /lib/x86_64-linux-gnu/libc.so.6
gmtime_r@GLIBC_2.2.5                              /lib/x86_64-linux-gnu/libc.so.6
gnu_get_libc_release                              /lib/x86_64-linux-gnu/libc.so.6
gnu_get_libc_release@@GLIBC_2.2.5                 /lib/x86_64-linux-gnu/libc.so.6
gnu_get_libc_release@GLIBC_2.2.5                  /lib/x86_64-linux-gnu/libc.so.6
gnu_get_libc_version                              /lib/x86_64-linux-gnu/libc.so.6
gnu_get_libc_version@@GLIBC_2.2.5                 /lib/x86_64-linux-gnu/libc.so.6
gnu_get_libc_version@GLIBC_2.2.5                  /lib/x86_64-linux-gnu/libc.so.6
group_member                                      /lib/x86_64-linux-gnu/libc.so.6
group_member@@GLIBC_2.2.5                         /lib/x86_64-linux-gnu/libc.so.6
group_member@GLIBC_2.2.5                          /lib/x86_64-linux-gnu/libc.so.6
gsignal                                           /lib/x86_64-linux-gnu/libc.so.6
gsignal@@GLIBC_2.2.5                              /lib/x86_64-linux-gnu/libc.so.6
gsignal@GLIBC_2.2.5                               /lib/x86_64-linux-gnu/libc.so.6
hasmntopt                                         /lib/x86_64-linux-gnu/libc.so.6
hasmntopt@@GLIBC_2.2.5                            /lib/x86_64-linux-gnu/libc.so.6
hasmntopt@GLIBC_2.2.5                             /lib/x86_64-linux-gnu/libc.so.6
hdestroy                                          /lib/x86_64-linux-gnu/libc.so.6
hdestroy@@GLIBC_2.2.5                             /lib/x86_64-linux-gnu/libc.so.6
hdestroy@GLIBC_2.2.5                              /lib/x86_64-linux-gnu/libc.so.6
hypot                                             /usr/lib/gcc/x86_64-linux-gnu/4.8/../../../x86_64-linux-gnu/libm.so
hypot@@GLIBC_2.2.5                                /usr/lib/gcc/x86_64-linux-gnu/4.8/../../../x86_64-linux-gnu/libm.so
hypot@GLIBC_2.2.5                                 /usr/lib/gcc/x86_64-linux-gnu/4.8/../../../x86_64-linux-gnu/libm.so
hypotf                                            /usr/lib/gcc/x86_64-linux-gnu/4.8/../../../x86_64-linux-gnu/libm.so
hypotf@@GLIBC_2.2.5                               /usr/lib/gcc/x86_64-linux-gnu/4.8/../../../x86_64-linux-gnu/libm.so
hypotf@GLIBC_2.2.5                                /usr/lib/gcc/x86_64-linux-gnu/4.8/../../../x86_64-linux-gnu/libm.so
hypotl                                            /usr/lib/gcc/x86_64-linux-gnu/4.8/../../../x86_64-linux-gnu/libm.so
hypotl@@GLIBC_2.2.5                               /usr/lib/gcc/x86_64-linux-gnu/4.8/../../../x86_64-linux-gnu/libm.so
hypotl@GLIBC_2.2.5                                /usr/lib/gcc/x86_64-linux-gnu/4.8/../../../x86_64-linux-gnu/libm.so
ilogb                                             /usr/lib/gcc/x86_64-linux-gnu/4.8/../../../x86_64-linux-gnu/libm.so
ilogb@@GLIBC_2.2.5                                /usr/lib/gcc/x86_64-linux-gnu/4.8/../../../x86_64-linux-gnu/libm.so
ilogb@GLIBC_2.2.5                                 /usr/lib/gcc/x86_64-linux-gnu/4.8/../../../x86_64-linux-gnu/libm.so
ilogbf                                            /usr/lib/gcc/x86_64-linux-gnu/4.8/../../../x86_64-linux-gnu/libm.so
ilogbf@@GLIBC_2.2.5                               /usr/lib/gcc/x86_64-linux-gnu/4.8/../../../x86_64-linux-gnu/libm.so
ilogbf@GLIBC_2.2.5                                /usr/lib/gcc/x86_64-linux-gnu/4.8/../../../x86_64-linux-gnu/libm.so
ilogbl                                            /usr/lib/gcc/x86_64-linux-gnu/4.8/../../../x86_64-linux-gnu/libm.so
ilogbl@@GLIBC_2.2.5                               /usr/lib/gcc/x86_64-linux-gnu/4.8/../../../x86_64-linux-gnu/libm.so
ilogbl@GLIBC_2.2.5                                /usr/lib/gcc/x86_64-linux-gnu/4.8/../../../x86_64-linux-gnu/libm.so
imaxabs                                           /lib/x86_64-linux-gnu/libc.so.6
imaxabs@@GLIBC_2.2.5                              /lib/x86_64-linux-gnu/libc.so.6
imaxabs@GLIBC_2.2.5                               /lib/x86_64-linux-gnu/libc.so.6
imaxdiv                                           /lib/x86_64-linux-gnu/libc.so.6
imaxdiv@@GLIBC_2.2.5                              /lib/x86_64-linux-gnu/libc.so.6
imaxdiv@GLIBC_2.2.5                               /lib/x86_64-linux-gnu/libc.so.6
index                                             /lib/x86_64-linux-gnu/libc.so.6
                                                  /root/hpc/x86_64-native-linuxapp-gcc/lib/librte_eal.a(eal_common_options.o)
index@@GLIBC_2.2.5                                /lib/x86_64-linux-gnu/libc.so.6
index@GLIBC_2.2.5                                 /lib/x86_64-linux-gnu/libc.so.6
inet_aton                                         /lib/x86_64-linux-gnu/libc.so.6
inet_aton@@GLIBC_2.2.5                            /lib/x86_64-linux-gnu/libc.so.6
inet_aton@GLIBC_2.2.5                             /lib/x86_64-linux-gnu/libc.so.6
initstate                                         /lib/x86_64-linux-gnu/libc.so.6
initstate@@GLIBC_2.2.5                            /lib/x86_64-linux-gnu/libc.so.6
initstate@GLIBC_2.2.5                             /lib/x86_64-linux-gnu/libc.so.6
initstate_r                                       /lib/x86_64-linux-gnu/libc.so.6
initstate_r@@GLIBC_2.2.5                          /lib/x86_64-linux-gnu/libc.so.6
initstate_r@GLIBC_2.2.5                           /lib/x86_64-linux-gnu/libc.so.6
internal_config                                   /root/hpc/x86_64-native-linuxapp-gcc/lib/librte_eal.a(eal.o)
                                                  /root/hpc/x86_64-native-linuxapp-gcc/lib/librte_eal.a(eal_common_options.o)
                                                  /root/hpc/x86_64-native-linuxapp-gcc/lib/librte_eal.a(eal_memory.o)
                                                  /root/hpc/x86_64-native-linuxapp-gcc/lib/librte_eal.a(eal_hugepage_info.o)
ioctl                                             /lib/x86_64-linux-gnu/libc.so.6
ioctl@@GLIBC_2.2.5                                /lib/x86_64-linux-gnu/libc.so.6
ioctl@GLIBC_2.2.5                                 /lib/x86_64-linux-gnu/libc.so.6
iopl                                              /lib/x86_64-linux-gnu/libc.so.6
                                                  /root/hpc/x86_64-native-linuxapp-gcc/lib/librte_eal.a(eal.o)
iopl@@GLIBC_2.2.5                                 /lib/x86_64-linux-gnu/libc.so.6
iopl@GLIBC_2.2.5                                  /lib/x86_64-linux-gnu/libc.so.6
isalnum_l                                         /lib/x86_64-linux-gnu/libc.so.6
isalnum_l@@GLIBC_2.3                              /lib/x86_64-linux-gnu/libc.so.6
isalnum_l@GLIBC_2.3                               /lib/x86_64-linux-gnu/libc.so.6
isalpha_l                                         /lib/x86_64-linux-gnu/libc.so.6
isalpha_l@@GLIBC_2.3                              /lib/x86_64-linux-gnu/libc.so.6
isalpha_l@GLIBC_2.3                               /lib/x86_64-linux-gnu/libc.so.6
isatty                                            /lib/x86_64-linux-gnu/libc.so.6
isatty@@GLIBC_2.2.5                               /lib/x86_64-linux-gnu/libc.so.6
isatty@GLIBC_2.2.5                                /lib/x86_64-linux-gnu/libc.so.6
isblank_l                                         /lib/x86_64-linux-gnu/libc.so.6
isblank_l@@GLIBC_2.3                              /lib/x86_64-linux-gnu/libc.so.6
isblank_l@GLIBC_2.3                               /lib/x86_64-linux-gnu/libc.so.6
iscntrl_l                                         /lib/x86_64-linux-gnu/libc.so.6
iscntrl_l@@GLIBC_2.3                              /lib/x86_64-linux-gnu/libc.so.6
iscntrl_l@GLIBC_2.3                               /lib/x86_64-linux-gnu/libc.so.6
isctype                                           /lib/x86_64-linux-gnu/libc.so.6
isctype@@GLIBC_2.3                                /lib/x86_64-linux-gnu/libc.so.6
isctype@GLIBC_2.3                                 /lib/x86_64-linux-gnu/libc.so.6
isdigit_l                                         /lib/x86_64-linux-gnu/libc.so.6
isdigit_l@@GLIBC_2.3                              /lib/x86_64-linux-gnu/libc.so.6
isdigit_l@GLIBC_2.3                               /lib/x86_64-linux-gnu/libc.so.6
isgraph_l                                         /lib/x86_64-linux-gnu/libc.so.6
isgraph_l@@GLIBC_2.3                              /lib/x86_64-linux-gnu/libc.so.6
isgraph_l@GLIBC_2.3                               /lib/x86_64-linux-gnu/libc.so.6
isinf                                             /lib/x86_64-linux-gnu/libc.so.6
isinf@@GLIBC_2.2.5                                /lib/x86_64-linux-gnu/libc.so.6
isinf@GLIBC_2.2.5                                 /lib/x86_64-linux-gnu/libc.so.6
isinff                                            /lib/x86_64-linux-gnu/libc.so.6
isinff@@GLIBC_2.2.5                               /lib/x86_64-linux-gnu/libc.so.6
isinff@GLIBC_2.2.5                                /lib/x86_64-linux-gnu/libc.so.6
isinfl                                            /lib/x86_64-linux-gnu/libc.so.6
isinfl@@GLIBC_2.2.5                               /lib/x86_64-linux-gnu/libc.so.6
isinfl@GLIBC_2.2.5                                /lib/x86_64-linux-gnu/libc.so.6
islower_l                                         /lib/x86_64-linux-gnu/libc.so.6
islower_l@@GLIBC_2.3                              /lib/x86_64-linux-gnu/libc.so.6
islower_l@GLIBC_2.3                               /lib/x86_64-linux-gnu/libc.so.6
isnan                                             /lib/x86_64-linux-gnu/libc.so.6
isnan@@GLIBC_2.2.5                                /lib/x86_64-linux-gnu/libc.so.6
isnan@GLIBC_2.2.5                                 /lib/x86_64-linux-gnu/libc.so.6
isnanf                                            /lib/x86_64-linux-gnu/libc.so.6
isnanf@@GLIBC_2.2.5                               /lib/x86_64-linux-gnu/libc.so.6
isnanf@GLIBC_2.2.5                                /lib/x86_64-linux-gnu/libc.so.6
isnanl                                            /lib/x86_64-linux-gnu/libc.so.6
isnanl@@GLIBC_2.2.5                               /lib/x86_64-linux-gnu/libc.so.6
isnanl@GLIBC_2.2.5                                /lib/x86_64-linux-gnu/libc.so.6
isprint_l                                         /lib/x86_64-linux-gnu/libc.so.6
isprint_l@@GLIBC_2.3                              /lib/x86_64-linux-gnu/libc.so.6
isprint_l@GLIBC_2.3                               /lib/x86_64-linux-gnu/libc.so.6
ispunct_l                                         /lib/x86_64-linux-gnu/libc.so.6
ispunct_l@@GLIBC_2.3                              /lib/x86_64-linux-gnu/libc.so.6
ispunct_l@GLIBC_2.3                               /lib/x86_64-linux-gnu/libc.so.6
isspace_l                                         /lib/x86_64-linux-gnu/libc.so.6
isspace_l@@GLIBC_2.3                              /lib/x86_64-linux-gnu/libc.so.6
isspace_l@GLIBC_2.3                               /lib/x86_64-linux-gnu/libc.so.6
isupper_l                                         /lib/x86_64-linux-gnu/libc.so.6
isupper_l@@GLIBC_2.3                              /lib/x86_64-linux-gnu/libc.so.6
isupper_l@GLIBC_2.3                               /lib/x86_64-linux-gnu/libc.so.6
iswalnum                                          /lib/x86_64-linux-gnu/libc.so.6
iswalnum@@GLIBC_2.2.5                             /lib/x86_64-linux-gnu/libc.so.6
iswalnum@GLIBC_2.2.5                              /lib/x86_64-linux-gnu/libc.so.6
iswalnum_l                                        /lib/x86_64-linux-gnu/libc.so.6
iswalnum_l@@GLIBC_2.3                             /lib/x86_64-linux-gnu/libc.so.6
iswalnum_l@GLIBC_2.3                              /lib/x86_64-linux-gnu/libc.so.6
iswalpha                                          /lib/x86_64-linux-gnu/libc.so.6
iswalpha@@GLIBC_2.2.5                             /lib/x86_64-linux-gnu/libc.so.6
iswalpha@GLIBC_2.2.5                              /lib/x86_64-linux-gnu/libc.so.6
iswalpha_l                                        /lib/x86_64-linux-gnu/libc.so.6
iswalpha_l@@GLIBC_2.3                             /lib/x86_64-linux-gnu/libc.so.6
iswalpha_l@GLIBC_2.3                              /lib/x86_64-linux-gnu/libc.so.6
iswblank                                          /lib/x86_64-linux-gnu/libc.so.6
iswblank@@GLIBC_2.2.5                             /lib/x86_64-linux-gnu/libc.so.6
iswblank@GLIBC_2.2.5                              /lib/x86_64-linux-gnu/libc.so.6
iswblank_l                                        /lib/x86_64-linux-gnu/libc.so.6
iswblank_l@@GLIBC_2.3                             /lib/x86_64-linux-gnu/libc.so.6
iswblank_l@GLIBC_2.3                              /lib/x86_64-linux-gnu/libc.so.6
iswcntrl                                          /lib/x86_64-linux-gnu/libc.so.6
iswcntrl@@GLIBC_2.2.5                             /lib/x86_64-linux-gnu/libc.so.6
iswcntrl@GLIBC_2.2.5                              /lib/x86_64-linux-gnu/libc.so.6
iswcntrl_l                                        /lib/x86_64-linux-gnu/libc.so.6
iswcntrl_l@@GLIBC_2.3                             /lib/x86_64-linux-gnu/libc.so.6
iswcntrl_l@GLIBC_2.3                              /lib/x86_64-linux-gnu/libc.so.6
iswctype                                          /lib/x86_64-linux-gnu/libc.so.6
iswctype@@GLIBC_2.2.5                             /lib/x86_64-linux-gnu/libc.so.6
iswctype@GLIBC_2.2.5                              /lib/x86_64-linux-gnu/libc.so.6
iswctype_l                                        /lib/x86_64-linux-gnu/libc.so.6
iswctype_l@@GLIBC_2.3                             /lib/x86_64-linux-gnu/libc.so.6
iswctype_l@GLIBC_2.3                              /lib/x86_64-linux-gnu/libc.so.6
iswdigit                                          /lib/x86_64-linux-gnu/libc.so.6
iswdigit@@GLIBC_2.2.5                             /lib/x86_64-linux-gnu/libc.so.6
iswdigit@GLIBC_2.2.5                              /lib/x86_64-linux-gnu/libc.so.6
iswdigit_l                                        /lib/x86_64-linux-gnu/libc.so.6
iswdigit_l@@GLIBC_2.3                             /lib/x86_64-linux-gnu/libc.so.6
iswdigit_l@GLIBC_2.3                              /lib/x86_64-linux-gnu/libc.so.6
iswgraph                                          /lib/x86_64-linux-gnu/libc.so.6
iswgraph@@GLIBC_2.2.5                             /lib/x86_64-linux-gnu/libc.so.6
iswgraph@GLIBC_2.2.5                              /lib/x86_64-linux-gnu/libc.so.6
iswgraph_l                                        /lib/x86_64-linux-gnu/libc.so.6
iswgraph_l@@GLIBC_2.3                             /lib/x86_64-linux-gnu/libc.so.6
iswgraph_l@GLIBC_2.3                              /lib/x86_64-linux-gnu/libc.so.6
iswlower                                          /lib/x86_64-linux-gnu/libc.so.6
iswlower@@GLIBC_2.2.5                             /lib/x86_64-linux-gnu/libc.so.6
iswlower@GLIBC_2.2.5                              /lib/x86_64-linux-gnu/libc.so.6
iswlower_l                                        /lib/x86_64-linux-gnu/libc.so.6
iswlower_l@@GLIBC_2.3                             /lib/x86_64-linux-gnu/libc.so.6
iswlower_l@GLIBC_2.3                              /lib/x86_64-linux-gnu/libc.so.6
iswprint                                          /lib/x86_64-linux-gnu/libc.so.6
iswprint@@GLIBC_2.2.5                             /lib/x86_64-linux-gnu/libc.so.6
iswprint@GLIBC_2.2.5                              /lib/x86_64-linux-gnu/libc.so.6
iswprint_l                                        /lib/x86_64-linux-gnu/libc.so.6
iswprint_l@@GLIBC_2.3                             /lib/x86_64-linux-gnu/libc.so.6
iswprint_l@GLIBC_2.3                              /lib/x86_64-linux-gnu/libc.so.6
iswpunct                                          /lib/x86_64-linux-gnu/libc.so.6
iswpunct@@GLIBC_2.2.5                             /lib/x86_64-linux-gnu/libc.so.6
iswpunct@GLIBC_2.2.5                              /lib/x86_64-linux-gnu/libc.so.6
iswpunct_l                                        /lib/x86_64-linux-gnu/libc.so.6
iswpunct_l@@GLIBC_2.3                             /lib/x86_64-linux-gnu/libc.so.6
iswpunct_l@GLIBC_2.3                              /lib/x86_64-linux-gnu/libc.so.6
iswspace                                          /lib/x86_64-linux-gnu/libc.so.6
iswspace@@GLIBC_2.2.5                             /lib/x86_64-linux-gnu/libc.so.6
iswspace@GLIBC_2.2.5                              /lib/x86_64-linux-gnu/libc.so.6
iswspace_l                                        /lib/x86_64-linux-gnu/libc.so.6
iswspace_l@@GLIBC_2.3                             /lib/x86_64-linux-gnu/libc.so.6
iswspace_l@GLIBC_2.3                              /lib/x86_64-linux-gnu/libc.so.6
iswupper                                          /lib/x86_64-linux-gnu/libc.so.6
iswupper@@GLIBC_2.2.5                             /lib/x86_64-linux-gnu/libc.so.6
iswupper@GLIBC_2.2.5                              /lib/x86_64-linux-gnu/libc.so.6
iswupper_l                                        /lib/x86_64-linux-gnu/libc.so.6
iswupper_l@@GLIBC_2.3                             /lib/x86_64-linux-gnu/libc.so.6
iswupper_l@GLIBC_2.3                              /lib/x86_64-linux-gnu/libc.so.6
iswxdigit                                         /lib/x86_64-linux-gnu/libc.so.6
iswxdigit@@GLIBC_2.2.5                            /lib/x86_64-linux-gnu/libc.so.6
iswxdigit@GLIBC_2.2.5                             /lib/x86_64-linux-gnu/libc.so.6
iswxdigit_l                                       /lib/x86_64-linux-gnu/libc.so.6
iswxdigit_l@@GLIBC_2.3                            /lib/x86_64-linux-gnu/libc.so.6
iswxdigit_l@GLIBC_2.3                             /lib/x86_64-linux-gnu/libc.so.6
isxdigit_l                                        /lib/x86_64-linux-gnu/libc.so.6
isxdigit_l@@GLIBC_2.3                             /lib/x86_64-linux-gnu/libc.so.6
isxdigit_l@GLIBC_2.3                              /lib/x86_64-linux-gnu/libc.so.6
j0l                                               /usr/lib/gcc/x86_64-linux-gnu/4.8/../../../x86_64-linux-gnu/libm.so
j0l@@GLIBC_2.2.5                                  /usr/lib/gcc/x86_64-linux-gnu/4.8/../../../x86_64-linux-gnu/libm.so
j0l@GLIBC_2.2.5                                   /usr/lib/gcc/x86_64-linux-gnu/4.8/../../../x86_64-linux-gnu/libm.so
j1l                                               /usr/lib/gcc/x86_64-linux-gnu/4.8/../../../x86_64-linux-gnu/libm.so
j1l@@GLIBC_2.2.5                                  /usr/lib/gcc/x86_64-linux-gnu/4.8/../../../x86_64-linux-gnu/libm.so
j1l@GLIBC_2.2.5                                   /usr/lib/gcc/x86_64-linux-gnu/4.8/../../../x86_64-linux-gnu/libm.so
jnl                                               /usr/lib/gcc/x86_64-linux-gnu/4.8/../../../x86_64-linux-gnu/libm.so
jnl@@GLIBC_2.2.5                                  /usr/lib/gcc/x86_64-linux-gnu/4.8/../../../x86_64-linux-gnu/libm.so
jnl@GLIBC_2.2.5                                   /usr/lib/gcc/x86_64-linux-gnu/4.8/../../../x86_64-linux-gnu/libm.so
jrand48_r                                         /lib/x86_64-linux-gnu/libc.so.6
jrand48_r@@GLIBC_2.2.5                            /lib/x86_64-linux-gnu/libc.so.6
jrand48_r@GLIBC_2.2.5                             /lib/x86_64-linux-gnu/libc.so.6
kill                                              /lib/x86_64-linux-gnu/libc.so.6
kill@@GLIBC_2.2.5                                 /lib/x86_64-linux-gnu/libc.so.6
kill@GLIBC_2.2.5                                  /lib/x86_64-linux-gnu/libc.so.6
lchown                                            /lib/x86_64-linux-gnu/libc.so.6
lchown@@GLIBC_2.2.5                               /lib/x86_64-linux-gnu/libc.so.6
lchown@GLIBC_2.2.5                                /lib/x86_64-linux-gnu/libc.so.6
lckpwdf                                           /lib/x86_64-linux-gnu/libc.so.6
lckpwdf@@GLIBC_2.2.5                              /lib/x86_64-linux-gnu/libc.so.6
lckpwdf@GLIBC_2.2.5                               /lib/x86_64-linux-gnu/libc.so.6
lcong48_r                                         /lib/x86_64-linux-gnu/libc.so.6
lcong48_r@@GLIBC_2.2.5                            /lib/x86_64-linux-gnu/libc.so.6
lcong48_r@GLIBC_2.2.5                             /lib/x86_64-linux-gnu/libc.so.6
lcore_config                                      /root/hpc/x86_64-native-linuxapp-gcc/lib/librte_eal.a(eal.o)
                                                  /root/hpc/x86_64-native-linuxapp-gcc/lib/librte_eal.a(eal_common_thread.o)
                                                  /root/hpc/x86_64-native-linuxapp-gcc/lib/librte_eal.a(eal_common_options.o)
                                                  /root/hpc/x86_64-native-linuxapp-gcc/lib/librte_eal.a(eal_common_launch.o)
                                                  /root/hpc/x86_64-native-linuxapp-gcc/lib/librte_eal.a(eal_lcore.o)
                                                  /root/hpc/x86_64-native-linuxapp-gcc/lib/librte_eal.a(eal_thread.o)
                                                  /root/hpc/x86_64-native-linuxapp-gcc/lib/librte_eal.a(eal_memory.o)
ldexp                                             /usr/lib/gcc/x86_64-linux-gnu/4.8/../../../x86_64-linux-gnu/libm.so
ldexp@@GLIBC_2.2.5                                /usr/lib/gcc/x86_64-linux-gnu/4.8/../../../x86_64-linux-gnu/libm.so
                                                  /lib/x86_64-linux-gnu/libc.so.6
ldexp@GLIBC_2.2.5                                 /usr/lib/gcc/x86_64-linux-gnu/4.8/../../../x86_64-linux-gnu/libm.so
ldexpf                                            /usr/lib/gcc/x86_64-linux-gnu/4.8/../../../x86_64-linux-gnu/libm.so
ldexpf@@GLIBC_2.2.5                               /usr/lib/gcc/x86_64-linux-gnu/4.8/../../../x86_64-linux-gnu/libm.so
                                                  /lib/x86_64-linux-gnu/libc.so.6
ldexpf@GLIBC_2.2.5                                /usr/lib/gcc/x86_64-linux-gnu/4.8/../../../x86_64-linux-gnu/libm.so
ldexpl                                            /usr/lib/gcc/x86_64-linux-gnu/4.8/../../../x86_64-linux-gnu/libm.so
ldexpl@@GLIBC_2.2.5                               /usr/lib/gcc/x86_64-linux-gnu/4.8/../../../x86_64-linux-gnu/libm.so
                                                  /lib/x86_64-linux-gnu/libc.so.6
ldexpl@GLIBC_2.2.5                                /usr/lib/gcc/x86_64-linux-gnu/4.8/../../../x86_64-linux-gnu/libm.so
lgamma                                            /usr/lib/gcc/x86_64-linux-gnu/4.8/../../../x86_64-linux-gnu/libm.so
lgamma@@GLIBC_2.2.5                               /usr/lib/gcc/x86_64-linux-gnu/4.8/../../../x86_64-linux-gnu/libm.so
lgamma@GLIBC_2.2.5                                /usr/lib/gcc/x86_64-linux-gnu/4.8/../../../x86_64-linux-gnu/libm.so
lgamma_r                                          /usr/lib/gcc/x86_64-linux-gnu/4.8/../../../x86_64-linux-gnu/libm.so
lgamma_r@@GLIBC_2.2.5                             /usr/lib/gcc/x86_64-linux-gnu/4.8/../../../x86_64-linux-gnu/libm.so
lgamma_r@GLIBC_2.2.5                              /usr/lib/gcc/x86_64-linux-gnu/4.8/../../../x86_64-linux-gnu/libm.so
lgammaf                                           /usr/lib/gcc/x86_64-linux-gnu/4.8/../../../x86_64-linux-gnu/libm.so
lgammaf@@GLIBC_2.2.5                              /usr/lib/gcc/x86_64-linux-gnu/4.8/../../../x86_64-linux-gnu/libm.so
lgammaf@GLIBC_2.2.5                               /usr/lib/gcc/x86_64-linux-gnu/4.8/../../../x86_64-linux-gnu/libm.so
lgammaf_r                                         /usr/lib/gcc/x86_64-linux-gnu/4.8/../../../x86_64-linux-gnu/libm.so
lgammaf_r@@GLIBC_2.2.5                            /usr/lib/gcc/x86_64-linux-gnu/4.8/../../../x86_64-linux-gnu/libm.so
lgammaf_r@GLIBC_2.2.5                             /usr/lib/gcc/x86_64-linux-gnu/4.8/../../../x86_64-linux-gnu/libm.so
lgammal                                           /usr/lib/gcc/x86_64-linux-gnu/4.8/../../../x86_64-linux-gnu/libm.so
lgammal@@GLIBC_2.2.5                              /usr/lib/gcc/x86_64-linux-gnu/4.8/../../../x86_64-linux-gnu/libm.so
lgammal@GLIBC_2.2.5                               /usr/lib/gcc/x86_64-linux-gnu/4.8/../../../x86_64-linux-gnu/libm.so
lgammal_r                                         /usr/lib/gcc/x86_64-linux-gnu/4.8/../../../x86_64-linux-gnu/libm.so
lgammal_r@@GLIBC_2.2.5                            /usr/lib/gcc/x86_64-linux-gnu/4.8/../../../x86_64-linux-gnu/libm.so
lgammal_r@GLIBC_2.2.5                             /usr/lib/gcc/x86_64-linux-gnu/4.8/../../../x86_64-linux-gnu/libm.so
link                                              /lib/x86_64-linux-gnu/libc.so.6
link@@GLIBC_2.2.5                                 /lib/x86_64-linux-gnu/libc.so.6
link@GLIBC_2.2.5                                  /lib/x86_64-linux-gnu/libc.so.6
                                                  /lib/x86_64-linux-gnu/libpthread.so.0
listen                                            /lib/x86_64-linux-gnu/libc.so.6
listen@@GLIBC_2.2.5                               /lib/x86_64-linux-gnu/libc.so.6
listen@GLIBC_2.2.5                                /lib/x86_64-linux-gnu/libc.so.6
llrint                                            /usr/lib/gcc/x86_64-linux-gnu/4.8/../../../x86_64-linux-gnu/libm.so
llrint@@GLIBC_2.2.5                               /usr/lib/gcc/x86_64-linux-gnu/4.8/../../../x86_64-linux-gnu/libm.so
llrint@GLIBC_2.2.5                                /usr/lib/gcc/x86_64-linux-gnu/4.8/../../../x86_64-linux-gnu/libm.so
llrintf                                           /usr/lib/gcc/x86_64-linux-gnu/4.8/../../../x86_64-linux-gnu/libm.so
llrintf@@GLIBC_2.2.5                              /usr/lib/gcc/x86_64-linux-gnu/4.8/../../../x86_64-linux-gnu/libm.so
llrintf@GLIBC_2.2.5                               /usr/lib/gcc/x86_64-linux-gnu/4.8/../../../x86_64-linux-gnu/libm.so
llrintl                                           /usr/lib/gcc/x86_64-linux-gnu/4.8/../../../x86_64-linux-gnu/libm.so
llrintl@@GLIBC_2.2.5                              /usr/lib/gcc/x86_64-linux-gnu/4.8/../../../x86_64-linux-gnu/libm.so
llrintl@GLIBC_2.2.5                               /usr/lib/gcc/x86_64-linux-gnu/4.8/../../../x86_64-linux-gnu/libm.so
llround                                           /usr/lib/gcc/x86_64-linux-gnu/4.8/../../../x86_64-linux-gnu/libm.so
llround@@GLIBC_2.2.5                              /usr/lib/gcc/x86_64-linux-gnu/4.8/../../../x86_64-linux-gnu/libm.so
llround@GLIBC_2.2.5                               /usr/lib/gcc/x86_64-linux-gnu/4.8/../../../x86_64-linux-gnu/libm.so
llroundf                                          /usr/lib/gcc/x86_64-linux-gnu/4.8/../../../x86_64-linux-gnu/libm.so
llroundf@@GLIBC_2.2.5                             /usr/lib/gcc/x86_64-linux-gnu/4.8/../../../x86_64-linux-gnu/libm.so
llroundf@GLIBC_2.2.5                              /usr/lib/gcc/x86_64-linux-gnu/4.8/../../../x86_64-linux-gnu/libm.so
llroundl                                          /usr/lib/gcc/x86_64-linux-gnu/4.8/../../../x86_64-linux-gnu/libm.so
llroundl@@GLIBC_2.2.5                             /usr/lib/gcc/x86_64-linux-gnu/4.8/../../../x86_64-linux-gnu/libm.so
llroundl@GLIBC_2.2.5                              /usr/lib/gcc/x86_64-linux-gnu/4.8/../../../x86_64-linux-gnu/libm.so
llseek                                            /lib/x86_64-linux-gnu/libc.so.6
llseek@@GLIBC_2.2.5                               /lib/x86_64-linux-gnu/libc.so.6
llseek@GLIBC_2.2.5                                /lib/x86_64-linux-gnu/libc.so.6
localtime_r                                       /lib/x86_64-linux-gnu/libc.so.6
localtime_r@@GLIBC_2.2.5                          /lib/x86_64-linux-gnu/libc.so.6
localtime_r@GLIBC_2.2.5                           /lib/x86_64-linux-gnu/libc.so.6
lockf64                                           /lib/x86_64-linux-gnu/libc.so.6
lockf64@@GLIBC_2.2.5                              /lib/x86_64-linux-gnu/libc.so.6
lockf64@GLIBC_2.2.5                               /lib/x86_64-linux-gnu/libc.so.6
log                                               /usr/lib/gcc/x86_64-linux-gnu/4.8/../../../x86_64-linux-gnu/libm.so
log10                                             /usr/lib/gcc/x86_64-linux-gnu/4.8/../../../x86_64-linux-gnu/libm.so
log10@@GLIBC_2.2.5                                /usr/lib/gcc/x86_64-linux-gnu/4.8/../../../x86_64-linux-gnu/libm.so
log10@GLIBC_2.2.5                                 /usr/lib/gcc/x86_64-linux-gnu/4.8/../../../x86_64-linux-gnu/libm.so
log10f                                            /usr/lib/gcc/x86_64-linux-gnu/4.8/../../../x86_64-linux-gnu/libm.so
log10f@@GLIBC_2.2.5                               /usr/lib/gcc/x86_64-linux-gnu/4.8/../../../x86_64-linux-gnu/libm.so
log10f@GLIBC_2.2.5                                /usr/lib/gcc/x86_64-linux-gnu/4.8/../../../x86_64-linux-gnu/libm.so
log10l                                            /usr/lib/gcc/x86_64-linux-gnu/4.8/../../../x86_64-linux-gnu/libm.so
log10l@@GLIBC_2.2.5                               /usr/lib/gcc/x86_64-linux-gnu/4.8/../../../x86_64-linux-gnu/libm.so
log10l@GLIBC_2.2.5                                /usr/lib/gcc/x86_64-linux-gnu/4.8/../../../x86_64-linux-gnu/libm.so
log1p                                             /usr/lib/gcc/x86_64-linux-gnu/4.8/../../../x86_64-linux-gnu/libm.so
log1p@@GLIBC_2.2.5                                /usr/lib/gcc/x86_64-linux-gnu/4.8/../../../x86_64-linux-gnu/libm.so
log1p@GLIBC_2.2.5                                 /usr/lib/gcc/x86_64-linux-gnu/4.8/../../../x86_64-linux-gnu/libm.so
log1pf                                            /usr/lib/gcc/x86_64-linux-gnu/4.8/../../../x86_64-linux-gnu/libm.so
log1pf@@GLIBC_2.2.5                               /usr/lib/gcc/x86_64-linux-gnu/4.8/../../../x86_64-linux-gnu/libm.so
log1pf@GLIBC_2.2.5                                /usr/lib/gcc/x86_64-linux-gnu/4.8/../../../x86_64-linux-gnu/libm.so
log1pl                                            /usr/lib/gcc/x86_64-linux-gnu/4.8/../../../x86_64-linux-gnu/libm.so
log1pl@@GLIBC_2.2.5                               /usr/lib/gcc/x86_64-linux-gnu/4.8/../../../x86_64-linux-gnu/libm.so
log1pl@GLIBC_2.2.5                                /usr/lib/gcc/x86_64-linux-gnu/4.8/../../../x86_64-linux-gnu/libm.so
log2                                              /usr/lib/gcc/x86_64-linux-gnu/4.8/../../../x86_64-linux-gnu/libm.so
log2@@GLIBC_2.2.5                                 /usr/lib/gcc/x86_64-linux-gnu/4.8/../../../x86_64-linux-gnu/libm.so
log2@GLIBC_2.2.5                                  /usr/lib/gcc/x86_64-linux-gnu/4.8/../../../x86_64-linux-gnu/libm.so
log2f                                             /usr/lib/gcc/x86_64-linux-gnu/4.8/../../../x86_64-linux-gnu/libm.so
log2f@@GLIBC_2.2.5                                /usr/lib/gcc/x86_64-linux-gnu/4.8/../../../x86_64-linux-gnu/libm.so
log2f@GLIBC_2.2.5                                 /usr/lib/gcc/x86_64-linux-gnu/4.8/../../../x86_64-linux-gnu/libm.so
log2l                                             /usr/lib/gcc/x86_64-linux-gnu/4.8/../../../x86_64-linux-gnu/libm.so
log2l@@GLIBC_2.2.5                                /usr/lib/gcc/x86_64-linux-gnu/4.8/../../../x86_64-linux-gnu/libm.so
log2l@GLIBC_2.2.5                                 /usr/lib/gcc/x86_64-linux-gnu/4.8/../../../x86_64-linux-gnu/libm.so
log@@GLIBC_2.2.5                                  /usr/lib/gcc/x86_64-linux-gnu/4.8/../../../x86_64-linux-gnu/libm.so
log@GLIBC_2.2.5                                   /usr/lib/gcc/x86_64-linux-gnu/4.8/../../../x86_64-linux-gnu/libm.so
logb                                              /usr/lib/gcc/x86_64-linux-gnu/4.8/../../../x86_64-linux-gnu/libm.so
logb@@GLIBC_2.2.5                                 /usr/lib/gcc/x86_64-linux-gnu/4.8/../../../x86_64-linux-gnu/libm.so
logb@GLIBC_2.2.5                                  /usr/lib/gcc/x86_64-linux-gnu/4.8/../../../x86_64-linux-gnu/libm.so
logbf                                             /usr/lib/gcc/x86_64-linux-gnu/4.8/../../../x86_64-linux-gnu/libm.so
logbf@@GLIBC_2.2.5                                /usr/lib/gcc/x86_64-linux-gnu/4.8/../../../x86_64-linux-gnu/libm.so
logbf@GLIBC_2.2.5                                 /usr/lib/gcc/x86_64-linux-gnu/4.8/../../../x86_64-linux-gnu/libm.so
logbl                                             /usr/lib/gcc/x86_64-linux-gnu/4.8/../../../x86_64-linux-gnu/libm.so
logbl@@GLIBC_2.2.5                                /usr/lib/gcc/x86_64-linux-gnu/4.8/../../../x86_64-linux-gnu/libm.so
logbl@GLIBC_2.2.5                                 /usr/lib/gcc/x86_64-linux-gnu/4.8/../../../x86_64-linux-gnu/libm.so
logf                                              /usr/lib/gcc/x86_64-linux-gnu/4.8/../../../x86_64-linux-gnu/libm.so
logf@@GLIBC_2.2.5                                 /usr/lib/gcc/x86_64-linux-gnu/4.8/../../../x86_64-linux-gnu/libm.so
logf@GLIBC_2.2.5                                  /usr/lib/gcc/x86_64-linux-gnu/4.8/../../../x86_64-linux-gnu/libm.so
logl                                              /usr/lib/gcc/x86_64-linux-gnu/4.8/../../../x86_64-linux-gnu/libm.so
logl@@GLIBC_2.2.5                                 /usr/lib/gcc/x86_64-linux-gnu/4.8/../../../x86_64-linux-gnu/libm.so
logl@GLIBC_2.2.5                                  /usr/lib/gcc/x86_64-linux-gnu/4.8/../../../x86_64-linux-gnu/libm.so
lrint                                             /usr/lib/gcc/x86_64-linux-gnu/4.8/../../../x86_64-linux-gnu/libm.so
lrint@@GLIBC_2.2.5                                /usr/lib/gcc/x86_64-linux-gnu/4.8/../../../x86_64-linux-gnu/libm.so
lrint@GLIBC_2.2.5                                 /usr/lib/gcc/x86_64-linux-gnu/4.8/../../../x86_64-linux-gnu/libm.so
lrintf                                            /usr/lib/gcc/x86_64-linux-gnu/4.8/../../../x86_64-linux-gnu/libm.so
lrintf@@GLIBC_2.2.5                               /usr/lib/gcc/x86_64-linux-gnu/4.8/../../../x86_64-linux-gnu/libm.so
lrintf@GLIBC_2.2.5                                /usr/lib/gcc/x86_64-linux-gnu/4.8/../../../x86_64-linux-gnu/libm.so
lrintl                                            /usr/lib/gcc/x86_64-linux-gnu/4.8/../../../x86_64-linux-gnu/libm.so
lrintl@@GLIBC_2.2.5                               /usr/lib/gcc/x86_64-linux-gnu/4.8/../../../x86_64-linux-gnu/libm.so
lrintl@GLIBC_2.2.5                                /usr/lib/gcc/x86_64-linux-gnu/4.8/../../../x86_64-linux-gnu/libm.so
lround                                            /usr/lib/gcc/x86_64-linux-gnu/4.8/../../../x86_64-linux-gnu/libm.so
lround@@GLIBC_2.2.5                               /usr/lib/gcc/x86_64-linux-gnu/4.8/../../../x86_64-linux-gnu/libm.so
lround@GLIBC_2.2.5                                /usr/lib/gcc/x86_64-linux-gnu/4.8/../../../x86_64-linux-gnu/libm.so
lroundf                                           /usr/lib/gcc/x86_64-linux-gnu/4.8/../../../x86_64-linux-gnu/libm.so
lroundf@@GLIBC_2.2.5                              /usr/lib/gcc/x86_64-linux-gnu/4.8/../../../x86_64-linux-gnu/libm.so
lroundf@GLIBC_2.2.5                               /usr/lib/gcc/x86_64-linux-gnu/4.8/../../../x86_64-linux-gnu/libm.so
lroundl                                           /usr/lib/gcc/x86_64-linux-gnu/4.8/../../../x86_64-linux-gnu/libm.so
lroundl@@GLIBC_2.2.5                              /usr/lib/gcc/x86_64-linux-gnu/4.8/../../../x86_64-linux-gnu/libm.so
lroundl@GLIBC_2.2.5                               /usr/lib/gcc/x86_64-linux-gnu/4.8/../../../x86_64-linux-gnu/libm.so
lseek                                             /lib/x86_64-linux-gnu/libpthread.so.0
lseek64                                           /lib/x86_64-linux-gnu/libpthread.so.0
                                                  /root/hpc/x86_64-native-linuxapp-gcc/lib/librte_eal.a(eal_memory.o)
lseek64@@GLIBC_2.2.5                              /lib/x86_64-linux-gnu/libpthread.so.0
                                                  /lib/x86_64-linux-gnu/libc.so.6
lseek64@GLIBC_2.2.5                               /lib/x86_64-linux-gnu/libpthread.so.0
lseek@@GLIBC_2.2.5                                /lib/x86_64-linux-gnu/libpthread.so.0
                                                  /lib/x86_64-linux-gnu/libc.so.6
lseek@GLIBC_2.2.5                                 /lib/x86_64-linux-gnu/libpthread.so.0
madvise                                           /lib/x86_64-linux-gnu/libc.so.6
madvise@@GLIBC_2.2.5                              /lib/x86_64-linux-gnu/libc.so.6
madvise@GLIBC_2.2.5                               /lib/x86_64-linux-gnu/libc.so.6
main                                              main.o
                                                  /usr/lib/gcc/x86_64-linux-gnu/4.8/../../../x86_64-linux-gnu/crt1.o
main_ctx                                          commands.o
                                                  main.o
makecontext                                       /lib/x86_64-linux-gnu/libc.so.6
makecontext@@GLIBC_2.2.5                          /lib/x86_64-linux-gnu/libc.so.6
makecontext@GLIBC_2.2.5                           /lib/x86_64-linux-gnu/libc.so.6
mallinfo                                          /lib/x86_64-linux-gnu/libc.so.6
mallinfo@@GLIBC_2.2.5                             /lib/x86_64-linux-gnu/libc.so.6
mallinfo@GLIBC_2.2.5                              /lib/x86_64-linux-gnu/libc.so.6
malloc                                            /lib/x86_64-linux-gnu/libc.so.6
                                                  /root/hpc/x86_64-native-linuxapp-gcc/lib/librte_cfgfile.a(rte_cfgfile.o)
                                                  /root/hpc/x86_64-native-linuxapp-gcc/lib/librte_cmdline.a(cmdline.o)
                                                  /root/hpc/x86_64-native-linuxapp-gcc/lib/librte_eal.a(eal_common_devargs.o)
                                                  /root/hpc/x86_64-native-linuxapp-gcc/lib/librte_eal.a(eal_memory.o)
                                                  /root/hpc/x86_64-native-linuxapp-gcc/lib/librte_eal.a(eal.o)
                                                  commands.o
malloc@@GLIBC_2.2.5                               /lib/x86_64-linux-gnu/libc.so.6
                                                  /lib/x86_64-linux-gnu/ld-linux-x86-64.so.2
malloc@GLIBC_2.2.5                                /lib/x86_64-linux-gnu/libc.so.6
                                                  /lib/x86_64-linux-gnu/libpthread.so.0
                                                  /usr/lib/gcc/x86_64-linux-gnu/4.8/../../../x86_64-linux-gnu/librt.so
malloc_elem_alloc                                 /root/hpc/x86_64-native-linuxapp-gcc/lib/librte_malloc.a(malloc_elem.o)
                                                  /root/hpc/x86_64-native-linuxapp-gcc/lib/librte_malloc.a(malloc_heap.o)
malloc_elem_can_hold                              /root/hpc/x86_64-native-linuxapp-gcc/lib/librte_malloc.a(malloc_elem.o)
                                                  /root/hpc/x86_64-native-linuxapp-gcc/lib/librte_malloc.a(malloc_heap.o)
malloc_elem_free                                  /root/hpc/x86_64-native-linuxapp-gcc/lib/librte_malloc.a(malloc_elem.o)
                                                  /root/hpc/x86_64-native-linuxapp-gcc/lib/librte_malloc.a(rte_malloc.o)
malloc_elem_free_list_index                       /root/hpc/x86_64-native-linuxapp-gcc/lib/librte_malloc.a(malloc_elem.o)
                                                  /root/hpc/x86_64-native-linuxapp-gcc/lib/librte_malloc.a(malloc_heap.o)
malloc_elem_free_list_insert                      /root/hpc/x86_64-native-linuxapp-gcc/lib/librte_malloc.a(malloc_elem.o)
                                                  /root/hpc/x86_64-native-linuxapp-gcc/lib/librte_malloc.a(malloc_heap.o)
malloc_elem_init                                  /root/hpc/x86_64-native-linuxapp-gcc/lib/librte_malloc.a(malloc_elem.o)
                                                  /root/hpc/x86_64-native-linuxapp-gcc/lib/librte_malloc.a(malloc_heap.o)
malloc_elem_mkend                                 /root/hpc/x86_64-native-linuxapp-gcc/lib/librte_malloc.a(malloc_elem.o)
                                                  /root/hpc/x86_64-native-linuxapp-gcc/lib/librte_malloc.a(malloc_heap.o)
malloc_elem_resize                                /root/hpc/x86_64-native-linuxapp-gcc/lib/librte_malloc.a(malloc_elem.o)
                                                  /root/hpc/x86_64-native-linuxapp-gcc/lib/librte_malloc.a(rte_malloc.o)
malloc_get_state                                  /lib/x86_64-linux-gnu/libc.so.6
malloc_get_state@@GLIBC_2.2.5                     /lib/x86_64-linux-gnu/libc.so.6
malloc_get_state@GLIBC_2.2.5                      /lib/x86_64-linux-gnu/libc.so.6
malloc_heap_alloc                                 /root/hpc/x86_64-native-linuxapp-gcc/lib/librte_malloc.a(malloc_heap.o)
                                                  /root/hpc/x86_64-native-linuxapp-gcc/lib/librte_malloc.a(rte_malloc.o)
malloc_heap_get_stats                             /root/hpc/x86_64-native-linuxapp-gcc/lib/librte_malloc.a(malloc_heap.o)
                                                  /root/hpc/x86_64-native-linuxapp-gcc/lib/librte_malloc.a(rte_malloc.o)
malloc_set_state                                  /lib/x86_64-linux-gnu/libc.so.6
malloc_set_state@@GLIBC_2.2.5                     /lib/x86_64-linux-gnu/libc.so.6
malloc_set_state@GLIBC_2.2.5                      /lib/x86_64-linux-gnu/libc.so.6
malloc_stats                                      /lib/x86_64-linux-gnu/libc.so.6
malloc_stats@@GLIBC_2.2.5                         /lib/x86_64-linux-gnu/libc.so.6
malloc_stats@GLIBC_2.2.5                          /lib/x86_64-linux-gnu/libc.so.6
malloc_trim                                       /lib/x86_64-linux-gnu/libc.so.6
malloc_trim@@GLIBC_2.2.5                          /lib/x86_64-linux-gnu/libc.so.6
malloc_trim@GLIBC_2.2.5                           /lib/x86_64-linux-gnu/libc.so.6
malloc_usable_size                                /lib/x86_64-linux-gnu/libc.so.6
malloc_usable_size@@GLIBC_2.2.5                   /lib/x86_64-linux-gnu/libc.so.6
malloc_usable_size@GLIBC_2.2.5                    /lib/x86_64-linux-gnu/libc.so.6
mallopt                                           /lib/x86_64-linux-gnu/libc.so.6
mallopt@@GLIBC_2.2.5                              /lib/x86_64-linux-gnu/libc.so.6
mallopt@GLIBC_2.2.5                               /lib/x86_64-linux-gnu/libc.so.6
matherr                                           /usr/lib/gcc/x86_64-linux-gnu/4.8/../../../x86_64-linux-gnu/libm.so
matherr@@GLIBC_2.2.5                              /usr/lib/gcc/x86_64-linux-gnu/4.8/../../../x86_64-linux-gnu/libm.so
matherr@GLIBC_2.2.5                               /usr/lib/gcc/x86_64-linux-gnu/4.8/../../../x86_64-linux-gnu/libm.so
mbrlen                                            /lib/x86_64-linux-gnu/libc.so.6
mbrlen@@GLIBC_2.2.5                               /lib/x86_64-linux-gnu/libc.so.6
mbrlen@GLIBC_2.2.5                                /lib/x86_64-linux-gnu/libc.so.6
mbrtoc32                                          /lib/x86_64-linux-gnu/libc.so.6
mbrtoc32@@GLIBC_2.16                              /lib/x86_64-linux-gnu/libc.so.6
mbrtoc32@GLIBC_2.16                               /lib/x86_64-linux-gnu/libc.so.6
mbrtowc                                           /lib/x86_64-linux-gnu/libc.so.6
mbrtowc@@GLIBC_2.2.5                              /lib/x86_64-linux-gnu/libc.so.6
mbrtowc@GLIBC_2.2.5                               /lib/x86_64-linux-gnu/libc.so.6
mbsinit                                           /lib/x86_64-linux-gnu/libc.so.6
mbsinit@@GLIBC_2.2.5                              /lib/x86_64-linux-gnu/libc.so.6
mbsinit@GLIBC_2.2.5                               /lib/x86_64-linux-gnu/libc.so.6
mbsnrtowcs                                        /lib/x86_64-linux-gnu/libc.so.6
mbsnrtowcs@@GLIBC_2.2.5                           /lib/x86_64-linux-gnu/libc.so.6
mbsnrtowcs@GLIBC_2.2.5                            /lib/x86_64-linux-gnu/libc.so.6
mbsrtowcs                                         /lib/x86_64-linux-gnu/libc.so.6
mbsrtowcs@@GLIBC_2.2.5                            /lib/x86_64-linux-gnu/libc.so.6
mbsrtowcs@GLIBC_2.2.5                             /lib/x86_64-linux-gnu/libc.so.6
mcount                                            /lib/x86_64-linux-gnu/libc.so.6
mcount@@GLIBC_2.2.5                               /lib/x86_64-linux-gnu/libc.so.6
mcount@GLIBC_2.2.5                                /lib/x86_64-linux-gnu/libc.so.6
memalign                                          /lib/x86_64-linux-gnu/libc.so.6
memalign@@GLIBC_2.2.5                             /lib/x86_64-linux-gnu/libc.so.6
memalign@GLIBC_2.2.5                              /lib/x86_64-linux-gnu/libc.so.6
memccpy                                           /lib/x86_64-linux-gnu/libc.so.6
memccpy@@GLIBC_2.2.5                              /lib/x86_64-linux-gnu/libc.so.6
memccpy@GLIBC_2.2.5                               /lib/x86_64-linux-gnu/libc.so.6
memchr                                            /lib/x86_64-linux-gnu/libc.so.6
                                                  /root/hpc/x86_64-native-linuxapp-gcc/lib/librte_cfgfile.a(rte_cfgfile.o)
memchr@@GLIBC_2.2.5                               /lib/x86_64-linux-gnu/libc.so.6
memchr@GLIBC_2.2.5                                /lib/x86_64-linux-gnu/libc.so.6
memcmp                                            /lib/x86_64-linux-gnu/libc.so.6
                                                  /root/hpc/x86_64-native-linuxapp-gcc/lib/librte_cmdline.a(cmdline.o)
memcmp@@GLIBC_2.2.5                               /lib/x86_64-linux-gnu/libc.so.6
memcmp@GLIBC_2.2.5                                /lib/x86_64-linux-gnu/libc.so.6
memcpy                                            /lib/x86_64-linux-gnu/libc.so.6
                                                  /root/hpc/x86_64-native-linuxapp-gcc/lib/librte_cmdline.a(cmdline_rdline.o)
                                                  /root/hpc/x86_64-native-linuxapp-gcc/lib/librte_cmdline.a(cmdline_parse_string.o)
                                                  /root/hpc/x86_64-native-linuxapp-gcc/lib/librte_cmdline.a(cmdline_cirbuf.o)
                                                  /root/hpc/x86_64-native-linuxapp-gcc/lib/librte_eal.a(eal_common_log.o)
                                                  /root/hpc/x86_64-native-linuxapp-gcc/lib/librte_eal.a(eal.o)
                                                  /root/hpc/x86_64-native-linuxapp-gcc/lib/librte_mempool.a(rte_mempool.o)
memcpy@@GLIBC_2.14                                /lib/x86_64-linux-gnu/libc.so.6
memcpy@GLIBC_2.14                                 /lib/x86_64-linux-gnu/libc.so.6
                                                  /lib/x86_64-linux-gnu/libpthread.so.0
                                                  /usr/lib/gcc/x86_64-linux-gnu/4.8/../../../x86_64-linux-gnu/librt.so
memmove                                           /lib/x86_64-linux-gnu/libc.so.6
                                                  /root/hpc/x86_64-native-linuxapp-gcc/lib/librte_eal.a(eal_common_thread.o)
memmove@@GLIBC_2.2.5                              /lib/x86_64-linux-gnu/libc.so.6
memmove@GLIBC_2.2.5                               /lib/x86_64-linux-gnu/libc.so.6
                                                  /usr/lib/gcc/x86_64-linux-gnu/4.8/../../../x86_64-linux-gnu/libm.so
mempcpy                                           /lib/x86_64-linux-gnu/libc.so.6
mempcpy@@GLIBC_2.2.5                              /lib/x86_64-linux-gnu/libc.so.6
mempcpy@GLIBC_2.2.5                               /lib/x86_64-linux-gnu/libc.so.6
                                                  /lib/x86_64-linux-gnu/libpthread.so.0
                                                  /usr/lib/gcc/x86_64-linux-gnu/4.8/../../../x86_64-linux-gnu/librt.so
memset                                            /lib/x86_64-linux-gnu/libc.so.6
                                                  /root/hpc/x86_64-native-linuxapp-gcc/lib/librte_cmdline.a(cmdline_rdline.o)
                                                  /root/hpc/x86_64-native-linuxapp-gcc/lib/librte_cmdline.a(cmdline.o)
                                                  /root/hpc/x86_64-native-linuxapp-gcc/lib/librte_eal.a(eal_common_memzone.o)
                                                  /root/hpc/x86_64-native-linuxapp-gcc/lib/librte_eal.a(eal_memory.o)
                                                  /root/hpc/x86_64-native-linuxapp-gcc/lib/librte_mempool.a(rte_mempool.o)
                                                  /root/hpc/x86_64-native-linuxapp-gcc/lib/librte_malloc.a(rte_malloc.o)
                                                  /root/hpc/x86_64-native-linuxapp-gcc/lib/librte_mbuf.a(rte_mbuf.o)
memset@@GLIBC_2.2.5                               /lib/x86_64-linux-gnu/libc.so.6
memset@GLIBC_2.2.5                                /lib/x86_64-linux-gnu/libc.so.6
                                                  /lib/x86_64-linux-gnu/libpthread.so.0
                                                  /usr/lib/gcc/x86_64-linux-gnu/4.8/../../../x86_64-linux-gnu/libm.so
mkdir                                             /lib/x86_64-linux-gnu/libc.so.6
mkdir@@GLIBC_2.2.5                                /lib/x86_64-linux-gnu/libc.so.6
mkdir@GLIBC_2.2.5                                 /lib/x86_64-linux-gnu/libc.so.6
mkostemp64                                        /lib/x86_64-linux-gnu/libc.so.6
mkostemp64@@GLIBC_2.7                             /lib/x86_64-linux-gnu/libc.so.6
mkostemp64@GLIBC_2.7                              /lib/x86_64-linux-gnu/libc.so.6
mkostemps64                                       /lib/x86_64-linux-gnu/libc.so.6
mkostemps64@@GLIBC_2.11                           /lib/x86_64-linux-gnu/libc.so.6
mkostemps64@GLIBC_2.11                            /lib/x86_64-linux-gnu/libc.so.6
mkstemp64                                         /lib/x86_64-linux-gnu/libc.so.6
mkstemp64@@GLIBC_2.2.5                            /lib/x86_64-linux-gnu/libc.so.6
mkstemp64@GLIBC_2.2.5                             /lib/x86_64-linux-gnu/libc.so.6
mkstemps64                                        /lib/x86_64-linux-gnu/libc.so.6
mkstemps64@@GLIBC_2.11                            /lib/x86_64-linux-gnu/libc.so.6
mkstemps64@GLIBC_2.11                             /lib/x86_64-linux-gnu/libc.so.6
mktemp                                            /lib/x86_64-linux-gnu/libc.so.6
mktemp@@GLIBC_2.2.5                               /lib/x86_64-linux-gnu/libc.so.6
mktemp@GLIBC_2.2.5                                /lib/x86_64-linux-gnu/libc.so.6
mlock                                             /lib/x86_64-linux-gnu/libc.so.6
                                                  /root/hpc/x86_64-native-linuxapp-gcc/lib/librte_eal.a(eal_memory.o)
mlock@@GLIBC_2.2.5                                /lib/x86_64-linux-gnu/libc.so.6
mlock@GLIBC_2.2.5                                 /lib/x86_64-linux-gnu/libc.so.6
mmap                                              /lib/x86_64-linux-gnu/libc.so.6
                                                  /root/hpc/x86_64-native-linuxapp-gcc/lib/librte_eal.a(eal.o)
mmap64                                            /lib/x86_64-linux-gnu/libc.so.6
                                                  /root/hpc/x86_64-native-linuxapp-gcc/lib/librte_eal.a(eal_memory.o)
mmap64@@GLIBC_2.2.5                               /lib/x86_64-linux-gnu/libc.so.6
mmap64@GLIBC_2.2.5                                /lib/x86_64-linux-gnu/libc.so.6
mmap@@GLIBC_2.2.5                                 /lib/x86_64-linux-gnu/libc.so.6
mmap@GLIBC_2.2.5                                  /lib/x86_64-linux-gnu/libc.so.6
                                                  /lib/x86_64-linux-gnu/libpthread.so.0
modf                                              /usr/lib/gcc/x86_64-linux-gnu/4.8/../../../x86_64-linux-gnu/libm.so
modf@@GLIBC_2.2.5                                 /usr/lib/gcc/x86_64-linux-gnu/4.8/../../../x86_64-linux-gnu/libm.so
                                                  /lib/x86_64-linux-gnu/libc.so.6
modf@GLIBC_2.2.5                                  /usr/lib/gcc/x86_64-linux-gnu/4.8/../../../x86_64-linux-gnu/libm.so
modff                                             /usr/lib/gcc/x86_64-linux-gnu/4.8/../../../x86_64-linux-gnu/libm.so
modff@@GLIBC_2.2.5                                /usr/lib/gcc/x86_64-linux-gnu/4.8/../../../x86_64-linux-gnu/libm.so
                                                  /lib/x86_64-linux-gnu/libc.so.6
modff@GLIBC_2.2.5                                 /usr/lib/gcc/x86_64-linux-gnu/4.8/../../../x86_64-linux-gnu/libm.so
modfl                                             /usr/lib/gcc/x86_64-linux-gnu/4.8/../../../x86_64-linux-gnu/libm.so
modfl@@GLIBC_2.2.5                                /usr/lib/gcc/x86_64-linux-gnu/4.8/../../../x86_64-linux-gnu/libm.so
                                                  /lib/x86_64-linux-gnu/libc.so.6
modfl@GLIBC_2.2.5                                 /usr/lib/gcc/x86_64-linux-gnu/4.8/../../../x86_64-linux-gnu/libm.so
modify_ldt                                        /lib/x86_64-linux-gnu/libc.so.6
modify_ldt@@GLIBC_2.2.5                           /lib/x86_64-linux-gnu/libc.so.6
modify_ldt@GLIBC_2.2.5                            /lib/x86_64-linux-gnu/libc.so.6
moncontrol                                        /lib/x86_64-linux-gnu/libc.so.6
moncontrol@@GLIBC_2.2.5                           /lib/x86_64-linux-gnu/libc.so.6
moncontrol@GLIBC_2.2.5                            /lib/x86_64-linux-gnu/libc.so.6
monstartup                                        /lib/x86_64-linux-gnu/libc.so.6
monstartup@@GLIBC_2.2.5                           /lib/x86_64-linux-gnu/libc.so.6
monstartup@GLIBC_2.2.5                            /lib/x86_64-linux-gnu/libc.so.6
mount                                             /lib/x86_64-linux-gnu/libc.so.6
mount@@GLIBC_2.2.5                                /lib/x86_64-linux-gnu/libc.so.6
mount@GLIBC_2.2.5                                 /lib/x86_64-linux-gnu/libc.so.6
mprotect                                          /lib/x86_64-linux-gnu/libc.so.6
mprotect@@GLIBC_2.2.5                             /lib/x86_64-linux-gnu/libc.so.6
mprotect@GLIBC_2.2.5                              /lib/x86_64-linux-gnu/libc.so.6
                                                  /lib/x86_64-linux-gnu/libpthread.so.0
mq_setattr                                        /usr/lib/gcc/x86_64-linux-gnu/4.8/../../../x86_64-linux-gnu/librt.so
mq_setattr@@GLIBC_2.3.4                           /usr/lib/gcc/x86_64-linux-gnu/4.8/../../../x86_64-linux-gnu/librt.so
mq_setattr@GLIBC_2.3.4                            /usr/lib/gcc/x86_64-linux-gnu/4.8/../../../x86_64-linux-gnu/librt.so
mq_timedreceive                                   /usr/lib/gcc/x86_64-linux-gnu/4.8/../../../x86_64-linux-gnu/librt.so
mq_timedreceive@@GLIBC_2.3.4                      /usr/lib/gcc/x86_64-linux-gnu/4.8/../../../x86_64-linux-gnu/librt.so
mq_timedreceive@GLIBC_2.3.4                       /usr/lib/gcc/x86_64-linux-gnu/4.8/../../../x86_64-linux-gnu/librt.so
mq_timedsend                                      /usr/lib/gcc/x86_64-linux-gnu/4.8/../../../x86_64-linux-gnu/librt.so
mq_timedsend@@GLIBC_2.3.4                         /usr/lib/gcc/x86_64-linux-gnu/4.8/../../../x86_64-linux-gnu/librt.so
mq_timedsend@GLIBC_2.3.4                          /usr/lib/gcc/x86_64-linux-gnu/4.8/../../../x86_64-linux-gnu/librt.so
mremap                                            /lib/x86_64-linux-gnu/libc.so.6
mremap@@GLIBC_2.2.5                               /lib/x86_64-linux-gnu/libc.so.6
mremap@GLIBC_2.2.5                                /lib/x86_64-linux-gnu/libc.so.6
msgctl                                            /lib/x86_64-linux-gnu/libc.so.6
msgctl@@GLIBC_2.2.5                               /lib/x86_64-linux-gnu/libc.so.6
msgctl@GLIBC_2.2.5                                /lib/x86_64-linux-gnu/libc.so.6
msgget                                            /lib/x86_64-linux-gnu/libc.so.6
msgget@@GLIBC_2.2.5                               /lib/x86_64-linux-gnu/libc.so.6
msgget@GLIBC_2.2.5                                /lib/x86_64-linux-gnu/libc.so.6
msgrcv                                            /lib/x86_64-linux-gnu/libc.so.6
msgrcv@@GLIBC_2.2.5                               /lib/x86_64-linux-gnu/libc.so.6
msgrcv@GLIBC_2.2.5                                /lib/x86_64-linux-gnu/libc.so.6
msgsnd                                            /lib/x86_64-linux-gnu/libc.so.6
msgsnd@@GLIBC_2.2.5                               /lib/x86_64-linux-gnu/libc.so.6
msgsnd@GLIBC_2.2.5                                /lib/x86_64-linux-gnu/libc.so.6
msync                                             /lib/x86_64-linux-gnu/libpthread.so.0
msync@@GLIBC_2.2.5                                /lib/x86_64-linux-gnu/libpthread.so.0
                                                  /lib/x86_64-linux-gnu/libc.so.6
msync@GLIBC_2.2.5                                 /lib/x86_64-linux-gnu/libpthread.so.0
munmap                                            /lib/x86_64-linux-gnu/libc.so.6
                                                  /root/hpc/x86_64-native-linuxapp-gcc/lib/librte_eal.a(eal_memory.o)
                                                  /root/hpc/x86_64-native-linuxapp-gcc/lib/librte_eal.a(eal.o)
munmap@@GLIBC_2.2.5                               /lib/x86_64-linux-gnu/libc.so.6
munmap@GLIBC_2.2.5                                /lib/x86_64-linux-gnu/libc.so.6
                                                  /lib/x86_64-linux-gnu/libpthread.so.0
nan                                               /usr/lib/gcc/x86_64-linux-gnu/4.8/../../../x86_64-linux-gnu/libm.so
nan@@GLIBC_2.2.5                                  /usr/lib/gcc/x86_64-linux-gnu/4.8/../../../x86_64-linux-gnu/libm.so
nan@GLIBC_2.2.5                                   /usr/lib/gcc/x86_64-linux-gnu/4.8/../../../x86_64-linux-gnu/libm.so
nanf                                              /usr/lib/gcc/x86_64-linux-gnu/4.8/../../../x86_64-linux-gnu/libm.so
nanf@@GLIBC_2.2.5                                 /usr/lib/gcc/x86_64-linux-gnu/4.8/../../../x86_64-linux-gnu/libm.so
nanf@GLIBC_2.2.5                                  /usr/lib/gcc/x86_64-linux-gnu/4.8/../../../x86_64-linux-gnu/libm.so
nanl                                              /usr/lib/gcc/x86_64-linux-gnu/4.8/../../../x86_64-linux-gnu/libm.so
nanl@@GLIBC_2.2.5                                 /usr/lib/gcc/x86_64-linux-gnu/4.8/../../../x86_64-linux-gnu/libm.so
nanl@GLIBC_2.2.5                                  /usr/lib/gcc/x86_64-linux-gnu/4.8/../../../x86_64-linux-gnu/libm.so
nanosleep                                         /lib/x86_64-linux-gnu/libpthread.so.0
                                                  /root/hpc/x86_64-native-linuxapp-gcc/lib/librte_eal.a(eal_timer.o)
nanosleep@@GLIBC_2.2.5                            /lib/x86_64-linux-gnu/libpthread.so.0
                                                  /lib/x86_64-linux-gnu/libc.so.6
nanosleep@GLIBC_2.2.5                             /lib/x86_64-linux-gnu/libpthread.so.0
nearbyint                                         /usr/lib/gcc/x86_64-linux-gnu/4.8/../../../x86_64-linux-gnu/libm.so
nearbyint@@GLIBC_2.2.5                            /usr/lib/gcc/x86_64-linux-gnu/4.8/../../../x86_64-linux-gnu/libm.so
nearbyint@GLIBC_2.2.5                             /usr/lib/gcc/x86_64-linux-gnu/4.8/../../../x86_64-linux-gnu/libm.so
nearbyintf                                        /usr/lib/gcc/x86_64-linux-gnu/4.8/../../../x86_64-linux-gnu/libm.so
nearbyintf@@GLIBC_2.2.5                           /usr/lib/gcc/x86_64-linux-gnu/4.8/../../../x86_64-linux-gnu/libm.so
nearbyintf@GLIBC_2.2.5                            /usr/lib/gcc/x86_64-linux-gnu/4.8/../../../x86_64-linux-gnu/libm.so
nearbyintl                                        /usr/lib/gcc/x86_64-linux-gnu/4.8/../../../x86_64-linux-gnu/libm.so
nearbyintl@@GLIBC_2.2.5                           /usr/lib/gcc/x86_64-linux-gnu/4.8/../../../x86_64-linux-gnu/libm.so
nearbyintl@GLIBC_2.2.5                            /usr/lib/gcc/x86_64-linux-gnu/4.8/../../../x86_64-linux-gnu/libm.so
newlocale                                         /lib/x86_64-linux-gnu/libc.so.6
newlocale@@GLIBC_2.3                              /lib/x86_64-linux-gnu/libc.so.6
newlocale@GLIBC_2.3                               /lib/x86_64-linux-gnu/libc.so.6
nextafter                                         /usr/lib/gcc/x86_64-linux-gnu/4.8/../../../x86_64-linux-gnu/libm.so
nextafter@@GLIBC_2.2.5                            /usr/lib/gcc/x86_64-linux-gnu/4.8/../../../x86_64-linux-gnu/libm.so
nextafter@GLIBC_2.2.5                             /usr/lib/gcc/x86_64-linux-gnu/4.8/../../../x86_64-linux-gnu/libm.so
nextafterf                                        /usr/lib/gcc/x86_64-linux-gnu/4.8/../../../x86_64-linux-gnu/libm.so
nextafterf@@GLIBC_2.2.5                           /usr/lib/gcc/x86_64-linux-gnu/4.8/../../../x86_64-linux-gnu/libm.so
nextafterf@GLIBC_2.2.5                            /usr/lib/gcc/x86_64-linux-gnu/4.8/../../../x86_64-linux-gnu/libm.so
nextafterl                                        /usr/lib/gcc/x86_64-linux-gnu/4.8/../../../x86_64-linux-gnu/libm.so
nextafterl@@GLIBC_2.2.5                           /usr/lib/gcc/x86_64-linux-gnu/4.8/../../../x86_64-linux-gnu/libm.so
nextafterl@GLIBC_2.2.5                            /usr/lib/gcc/x86_64-linux-gnu/4.8/../../../x86_64-linux-gnu/libm.so
nexttoward                                        /usr/lib/gcc/x86_64-linux-gnu/4.8/../../../x86_64-linux-gnu/libm.so
nexttoward@@GLIBC_2.2.5                           /usr/lib/gcc/x86_64-linux-gnu/4.8/../../../x86_64-linux-gnu/libm.so
nexttoward@GLIBC_2.2.5                            /usr/lib/gcc/x86_64-linux-gnu/4.8/../../../x86_64-linux-gnu/libm.so
nexttowardf                                       /usr/lib/gcc/x86_64-linux-gnu/4.8/../../../x86_64-linux-gnu/libm.so
nexttowardf@@GLIBC_2.2.5                          /usr/lib/gcc/x86_64-linux-gnu/4.8/../../../x86_64-linux-gnu/libm.so
nexttowardf@GLIBC_2.2.5                           /usr/lib/gcc/x86_64-linux-gnu/4.8/../../../x86_64-linux-gnu/libm.so
nexttowardl                                       /usr/lib/gcc/x86_64-linux-gnu/4.8/../../../x86_64-linux-gnu/libm.so
nexttowardl@@GLIBC_2.2.5                          /usr/lib/gcc/x86_64-linux-gnu/4.8/../../../x86_64-linux-gnu/libm.so
nexttowardl@GLIBC_2.2.5                           /usr/lib/gcc/x86_64-linux-gnu/4.8/../../../x86_64-linux-gnu/libm.so
ngettext                                          /lib/x86_64-linux-gnu/libc.so.6
ngettext@@GLIBC_2.2.5                             /lib/x86_64-linux-gnu/libc.so.6
ngettext@GLIBC_2.2.5                              /lib/x86_64-linux-gnu/libc.so.6
nl_langinfo_l                                     /lib/x86_64-linux-gnu/libc.so.6
nl_langinfo_l@@GLIBC_2.3                          /lib/x86_64-linux-gnu/libc.so.6
nl_langinfo_l@GLIBC_2.3                           /lib/x86_64-linux-gnu/libc.so.6
nrand48_r                                         /lib/x86_64-linux-gnu/libc.so.6
nrand48_r@@GLIBC_2.2.5                            /lib/x86_64-linux-gnu/libc.so.6
nrand48_r@GLIBC_2.2.5                             /lib/x86_64-linux-gnu/libc.so.6
ntohl                                             /lib/x86_64-linux-gnu/libc.so.6
ntohl@@GLIBC_2.2.5                                /lib/x86_64-linux-gnu/libc.so.6
ntohl@GLIBC_2.2.5                                 /lib/x86_64-linux-gnu/libc.so.6
ntohs                                             /lib/x86_64-linux-gnu/libc.so.6
ntohs@@GLIBC_2.2.5                                /lib/x86_64-linux-gnu/libc.so.6
ntohs@GLIBC_2.2.5                                 /lib/x86_64-linux-gnu/libc.so.6
ntp_adjtime                                       /lib/x86_64-linux-gnu/libc.so.6
ntp_adjtime@@GLIBC_2.2.5                          /lib/x86_64-linux-gnu/libc.so.6
ntp_adjtime@GLIBC_2.2.5                           /lib/x86_64-linux-gnu/libc.so.6
obstack_printf                                    /lib/x86_64-linux-gnu/libc.so.6
obstack_printf@@GLIBC_2.2.5                       /lib/x86_64-linux-gnu/libc.so.6
obstack_printf@GLIBC_2.2.5                        /lib/x86_64-linux-gnu/libc.so.6
obstack_vprintf                                   /lib/x86_64-linux-gnu/libc.so.6
obstack_vprintf@@GLIBC_2.2.5                      /lib/x86_64-linux-gnu/libc.so.6
obstack_vprintf@GLIBC_2.2.5                       /lib/x86_64-linux-gnu/libc.so.6
on_exit                                           /lib/x86_64-linux-gnu/libc.so.6
on_exit@@GLIBC_2.2.5                              /lib/x86_64-linux-gnu/libc.so.6
on_exit@GLIBC_2.2.5                               /lib/x86_64-linux-gnu/libc.so.6
open                                              /lib/x86_64-linux-gnu/libpthread.so.0
                                                  /root/hpc/x86_64-native-linuxapp-gcc/lib/librte_cmdline.a(cmdline_socket.o)
                                                  /root/hpc/x86_64-native-linuxapp-gcc/lib/librte_eal.a(eal_hugepage_info.o)
                                                  /root/hpc/x86_64-native-linuxapp-gcc/lib/librte_eal.a(eal.o)
open64                                            /lib/x86_64-linux-gnu/libpthread.so.0
                                                  /root/hpc/x86_64-native-linuxapp-gcc/lib/librte_eal.a(eal_memory.o)
open64@@GLIBC_2.2.5                               /lib/x86_64-linux-gnu/libpthread.so.0
                                                  /lib/x86_64-linux-gnu/libc.so.6
open64@GLIBC_2.2.5                                /lib/x86_64-linux-gnu/libpthread.so.0
open@@GLIBC_2.2.5                                 /lib/x86_64-linux-gnu/libpthread.so.0
                                                  /lib/x86_64-linux-gnu/libc.so.6
open@GLIBC_2.2.5                                  /lib/x86_64-linux-gnu/libpthread.so.0
                                                  /usr/lib/gcc/x86_64-linux-gnu/4.8/../../../x86_64-linux-gnu/librt.so
openat                                            /lib/x86_64-linux-gnu/libc.so.6
                                                  /root/hpc/x86_64-native-linuxapp-gcc/lib/librte_eal.a(eal_hugepage_info.o)
openat64                                          /lib/x86_64-linux-gnu/libc.so.6
openat64@@GLIBC_2.4                               /lib/x86_64-linux-gnu/libc.so.6
openat64@GLIBC_2.4                                /lib/x86_64-linux-gnu/libc.so.6
openat@@GLIBC_2.4                                 /lib/x86_64-linux-gnu/libc.so.6
openat@GLIBC_2.4                                  /lib/x86_64-linux-gnu/libc.so.6
opendir                                           /lib/x86_64-linux-gnu/libc.so.6
                                                  /root/hpc/x86_64-native-linuxapp-gcc/lib/librte_eal.a(eal_hugepage_info.o)
opendir@@GLIBC_2.2.5                              /lib/x86_64-linux-gnu/libc.so.6
opendir@GLIBC_2.2.5                               /lib/x86_64-linux-gnu/libc.so.6
openlog                                           /lib/x86_64-linux-gnu/libc.so.6
                                                  /root/hpc/x86_64-native-linuxapp-gcc/lib/librte_eal.a(eal_log.o)
openlog@@GLIBC_2.2.5                              /lib/x86_64-linux-gnu/libc.so.6
openlog@GLIBC_2.2.5                               /lib/x86_64-linux-gnu/libc.so.6
optarg                                            /lib/x86_64-linux-gnu/libc.so.6
                                                  /root/hpc/x86_64-native-linuxapp-gcc/lib/librte_eal.a(eal.o)
optarg@@GLIBC_2.2.5                               /lib/x86_64-linux-gnu/libc.so.6
optarg@GLIBC_2.2.5                                /lib/x86_64-linux-gnu/libc.so.6
optind                                            /lib/x86_64-linux-gnu/libc.so.6
                                                  /root/hpc/x86_64-native-linuxapp-gcc/lib/librte_eal.a(eal.o)
optind@@GLIBC_2.2.5                               /lib/x86_64-linux-gnu/libc.so.6
optind@GLIBC_2.2.5                                /lib/x86_64-linux-gnu/libc.so.6
parse_obj_list                                    parse_obj_list.o
pathconf                                          /lib/x86_64-linux-gnu/libc.so.6
pathconf@@GLIBC_2.2.5                             /lib/x86_64-linux-gnu/libc.so.6
pathconf@GLIBC_2.2.5                              /lib/x86_64-linux-gnu/libc.so.6
pause                                             /lib/x86_64-linux-gnu/libpthread.so.0
pause@@GLIBC_2.2.5                                /lib/x86_64-linux-gnu/libpthread.so.0
                                                  /lib/x86_64-linux-gnu/libc.so.6
pause@GLIBC_2.2.5                                 /lib/x86_64-linux-gnu/libpthread.so.0
per_lcore__cpuset                                 /root/hpc/x86_64-native-linuxapp-gcc/lib/librte_eal.a(eal_thread.o)
                                                  /root/hpc/x86_64-native-linuxapp-gcc/lib/librte_eal.a(eal_common_thread.o)
per_lcore__lcore_id                               /root/hpc/x86_64-native-linuxapp-gcc/lib/librte_eal.a(eal_thread.o)
                                                  /root/hpc/x86_64-native-linuxapp-gcc/lib/librte_eal.a(eal_common_thread.o)
                                                  /root/hpc/x86_64-native-linuxapp-gcc/lib/librte_eal.a(eal_common_log.o)
per_lcore__rte_errno                              /root/hpc/x86_64-native-linuxapp-gcc/lib/librte_eal.a(eal_common_errno.o)
                                                  /root/hpc/x86_64-native-linuxapp-gcc/lib/librte_eal.a(eal_common_memzone.o)
                                                  /root/hpc/x86_64-native-linuxapp-gcc/lib/librte_ring.a(rte_ring.o)
                                                  /root/hpc/x86_64-native-linuxapp-gcc/lib/librte_mempool.a(rte_mempool.o)
per_lcore__socket_id                              /root/hpc/x86_64-native-linuxapp-gcc/lib/librte_eal.a(eal_thread.o)
                                                  /root/hpc/x86_64-native-linuxapp-gcc/lib/librte_eal.a(eal_common_thread.o)
personality                                       /lib/x86_64-linux-gnu/libc.so.6
personality@@GLIBC_2.2.5                          /lib/x86_64-linux-gnu/libc.so.6
personality@GLIBC_2.2.5                           /lib/x86_64-linux-gnu/libc.so.6
pipe                                              /lib/x86_64-linux-gnu/libc.so.6
                                                  /root/hpc/x86_64-native-linuxapp-gcc/lib/librte_eal.a(eal.o)
pipe2                                             /lib/x86_64-linux-gnu/libc.so.6
pipe2@@GLIBC_2.9                                  /lib/x86_64-linux-gnu/libc.so.6
pipe2@GLIBC_2.9                                   /lib/x86_64-linux-gnu/libc.so.6
pipe@@GLIBC_2.2.5                                 /lib/x86_64-linux-gnu/libc.so.6
pipe@GLIBC_2.2.5                                  /lib/x86_64-linux-gnu/libc.so.6
poll                                              /lib/x86_64-linux-gnu/libc.so.6
                                                  /root/hpc/x86_64-native-linuxapp-gcc/lib/librte_cmdline.a(cmdline.o)
poll@@GLIBC_2.2.5                                 /lib/x86_64-linux-gnu/libc.so.6
poll@GLIBC_2.2.5                                  /lib/x86_64-linux-gnu/libc.so.6
posix_memalign                                    /lib/x86_64-linux-gnu/libc.so.6
posix_memalign@@GLIBC_2.2.5                       /lib/x86_64-linux-gnu/libc.so.6
posix_memalign@GLIBC_2.2.5                        /lib/x86_64-linux-gnu/libc.so.6
posix_openpt                                      /lib/x86_64-linux-gnu/libc.so.6
posix_openpt@@GLIBC_2.2.5                         /lib/x86_64-linux-gnu/libc.so.6
posix_openpt@GLIBC_2.2.5                          /lib/x86_64-linux-gnu/libc.so.6
pow                                               /usr/lib/gcc/x86_64-linux-gnu/4.8/../../../x86_64-linux-gnu/libm.so
pow10                                             /usr/lib/gcc/x86_64-linux-gnu/4.8/../../../x86_64-linux-gnu/libm.so
pow10@@GLIBC_2.2.5                                /usr/lib/gcc/x86_64-linux-gnu/4.8/../../../x86_64-linux-gnu/libm.so
pow10@GLIBC_2.2.5                                 /usr/lib/gcc/x86_64-linux-gnu/4.8/../../../x86_64-linux-gnu/libm.so
pow10f                                            /usr/lib/gcc/x86_64-linux-gnu/4.8/../../../x86_64-linux-gnu/libm.so
pow10f@@GLIBC_2.2.5                               /usr/lib/gcc/x86_64-linux-gnu/4.8/../../../x86_64-linux-gnu/libm.so
pow10f@GLIBC_2.2.5                                /usr/lib/gcc/x86_64-linux-gnu/4.8/../../../x86_64-linux-gnu/libm.so
pow10l                                            /usr/lib/gcc/x86_64-linux-gnu/4.8/../../../x86_64-linux-gnu/libm.so
pow10l@@GLIBC_2.2.5                               /usr/lib/gcc/x86_64-linux-gnu/4.8/../../../x86_64-linux-gnu/libm.so
pow10l@GLIBC_2.2.5                                /usr/lib/gcc/x86_64-linux-gnu/4.8/../../../x86_64-linux-gnu/libm.so
pow@@GLIBC_2.2.5                                  /usr/lib/gcc/x86_64-linux-gnu/4.8/../../../x86_64-linux-gnu/libm.so
pow@GLIBC_2.2.5                                   /usr/lib/gcc/x86_64-linux-gnu/4.8/../../../x86_64-linux-gnu/libm.so
powf                                              /usr/lib/gcc/x86_64-linux-gnu/4.8/../../../x86_64-linux-gnu/libm.so
powf@@GLIBC_2.2.5                                 /usr/lib/gcc/x86_64-linux-gnu/4.8/../../../x86_64-linux-gnu/libm.so
powf@GLIBC_2.2.5                                  /usr/lib/gcc/x86_64-linux-gnu/4.8/../../../x86_64-linux-gnu/libm.so
powl                                              /usr/lib/gcc/x86_64-linux-gnu/4.8/../../../x86_64-linux-gnu/libm.so
powl@@GLIBC_2.2.5                                 /usr/lib/gcc/x86_64-linux-gnu/4.8/../../../x86_64-linux-gnu/libm.so
powl@GLIBC_2.2.5                                  /usr/lib/gcc/x86_64-linux-gnu/4.8/../../../x86_64-linux-gnu/libm.so
prctl                                             /lib/x86_64-linux-gnu/libc.so.6
prctl@@GLIBC_2.2.5                                /lib/x86_64-linux-gnu/libc.so.6
prctl@GLIBC_2.2.5                                 /lib/x86_64-linux-gnu/libc.so.6
                                                  /lib/x86_64-linux-gnu/libpthread.so.0
pread                                             /lib/x86_64-linux-gnu/libpthread.so.0
pread64                                           /lib/x86_64-linux-gnu/libpthread.so.0
pread64@@GLIBC_2.2.5                              /lib/x86_64-linux-gnu/libpthread.so.0
                                                  /lib/x86_64-linux-gnu/libc.so.6
pread64@GLIBC_2.2.5                               /lib/x86_64-linux-gnu/libpthread.so.0
pread@@GLIBC_2.2.5                                /lib/x86_64-linux-gnu/libpthread.so.0
                                                  /lib/x86_64-linux-gnu/libc.so.6
pread@GLIBC_2.2.5                                 /lib/x86_64-linux-gnu/libpthread.so.0
                                                  /usr/lib/gcc/x86_64-linux-gnu/4.8/../../../x86_64-linux-gnu/librt.so
prlimit64                                         /lib/x86_64-linux-gnu/libc.so.6
prlimit64@@GLIBC_2.13                             /lib/x86_64-linux-gnu/libc.so.6
prlimit64@GLIBC_2.13                              /lib/x86_64-linux-gnu/libc.so.6
profil                                            /lib/x86_64-linux-gnu/libc.so.6
profil@@GLIBC_2.2.5                               /lib/x86_64-linux-gnu/libc.so.6
profil@GLIBC_2.2.5                                /lib/x86_64-linux-gnu/libc.so.6
program_invocation_name                           /lib/x86_64-linux-gnu/libc.so.6
program_invocation_name@@GLIBC_2.2.5              /lib/x86_64-linux-gnu/libc.so.6
program_invocation_name@GLIBC_2.2.5               /lib/x86_64-linux-gnu/libc.so.6
program_invocation_short_name                     /lib/x86_64-linux-gnu/libc.so.6
program_invocation_short_name@@GLIBC_2.2.5        /lib/x86_64-linux-gnu/libc.so.6
program_invocation_short_name@GLIBC_2.2.5         /lib/x86_64-linux-gnu/libc.so.6
pselect                                           /lib/x86_64-linux-gnu/libc.so.6
pselect@@GLIBC_2.2.5                              /lib/x86_64-linux-gnu/libc.so.6
pselect@GLIBC_2.2.5                               /lib/x86_64-linux-gnu/libc.so.6
pthread_create                                    /lib/x86_64-linux-gnu/libpthread.so.0
                                                  /root/hpc/x86_64-native-linuxapp-gcc/lib/librte_eal.a(eal.o)
pthread_create@@GLIBC_2.2.5                       /lib/x86_64-linux-gnu/libpthread.so.0
pthread_create@GLIBC_2.2.5                        /lib/x86_64-linux-gnu/libpthread.so.0
                                                  /usr/lib/gcc/x86_64-linux-gnu/4.8/../../../x86_64-linux-gnu/librt.so
pthread_mutex_consistent_np                       /lib/x86_64-linux-gnu/libpthread.so.0
pthread_mutex_consistent_np@@GLIBC_2.4            /lib/x86_64-linux-gnu/libpthread.so.0
pthread_mutex_consistent_np@GLIBC_2.4             /lib/x86_64-linux-gnu/libpthread.so.0
pthread_mutexattr_getkind_np                      /lib/x86_64-linux-gnu/libpthread.so.0
pthread_mutexattr_getkind_np@@GLIBC_2.2.5         /lib/x86_64-linux-gnu/libpthread.so.0
pthread_mutexattr_getkind_np@GLIBC_2.2.5          /lib/x86_64-linux-gnu/libpthread.so.0
pthread_mutexattr_getrobust_np                    /lib/x86_64-linux-gnu/libpthread.so.0
pthread_mutexattr_getrobust_np@@GLIBC_2.4         /lib/x86_64-linux-gnu/libpthread.so.0
pthread_mutexattr_getrobust_np@GLIBC_2.4          /lib/x86_64-linux-gnu/libpthread.so.0
pthread_mutexattr_setkind_np                      /lib/x86_64-linux-gnu/libpthread.so.0
pthread_mutexattr_setkind_np@@GLIBC_2.2.5         /lib/x86_64-linux-gnu/libpthread.so.0
pthread_mutexattr_setkind_np@GLIBC_2.2.5          /lib/x86_64-linux-gnu/libpthread.so.0
pthread_mutexattr_setrobust_np                    /lib/x86_64-linux-gnu/libpthread.so.0
pthread_mutexattr_setrobust_np@@GLIBC_2.4         /lib/x86_64-linux-gnu/libpthread.so.0
pthread_mutexattr_setrobust_np@GLIBC_2.4          /lib/x86_64-linux-gnu/libpthread.so.0
pthread_self                                      /lib/x86_64-linux-gnu/libpthread.so.0
                                                  /root/hpc/x86_64-native-linuxapp-gcc/lib/librte_eal.a(eal_common_thread.o)
                                                  /root/hpc/x86_64-native-linuxapp-gcc/lib/librte_eal.a(eal_thread.o)
                                                  /root/hpc/x86_64-native-linuxapp-gcc/lib/librte_eal.a(eal.o)
pthread_self@@GLIBC_2.2.5                         /lib/x86_64-linux-gnu/libpthread.so.0
                                                  /lib/x86_64-linux-gnu/libc.so.6
pthread_self@GLIBC_2.2.5                          /lib/x86_64-linux-gnu/libpthread.so.0
                                                  /usr/lib/gcc/x86_64-linux-gnu/4.8/../../../x86_64-linux-gnu/librt.so
pthread_setaffinity_np                            /lib/x86_64-linux-gnu/libpthread.so.0
                                                  /root/hpc/x86_64-native-linuxapp-gcc/lib/librte_eal.a(eal_common_thread.o)
pthread_setaffinity_np@@GLIBC_2.3.4               /lib/x86_64-linux-gnu/libpthread.so.0
pthread_setaffinity_np@GLIBC_2.3.4                /lib/x86_64-linux-gnu/libpthread.so.0
ptsname_r                                         /lib/x86_64-linux-gnu/libc.so.6
ptsname_r@@GLIBC_2.2.5                            /lib/x86_64-linux-gnu/libc.so.6
ptsname_r@GLIBC_2.2.5                             /lib/x86_64-linux-gnu/libc.so.6
putc                                              /lib/x86_64-linux-gnu/libc.so.6
putc@@GLIBC_2.2.5                                 /lib/x86_64-linux-gnu/libc.so.6
putc@GLIBC_2.2.5                                  /lib/x86_64-linux-gnu/libc.so.6
puts                                              /lib/x86_64-linux-gnu/libc.so.6
                                                  /root/hpc/x86_64-native-linuxapp-gcc/lib/librte_cfgfile.a(rte_cfgfile.o)
                                                  /root/hpc/x86_64-native-linuxapp-gcc/lib/librte_eal.a(eal_log.o)
                                                  /root/hpc/x86_64-native-linuxapp-gcc/lib/librte_eal.a(eal.o)
puts@@GLIBC_2.2.5                                 /lib/x86_64-linux-gnu/libc.so.6
puts@GLIBC_2.2.5                                  /lib/x86_64-linux-gnu/libc.so.6
pututline                                         /lib/x86_64-linux-gnu/libc.so.6
pututline@@GLIBC_2.2.5                            /lib/x86_64-linux-gnu/libc.so.6
pututline@GLIBC_2.2.5                             /lib/x86_64-linux-gnu/libc.so.6
pvalloc                                           /lib/x86_64-linux-gnu/libc.so.6
pvalloc@@GLIBC_2.2.5                              /lib/x86_64-linux-gnu/libc.so.6
pvalloc@GLIBC_2.2.5                               /lib/x86_64-linux-gnu/libc.so.6
pwrite                                            /lib/x86_64-linux-gnu/libpthread.so.0
pwrite64                                          /lib/x86_64-linux-gnu/libpthread.so.0
pwrite64@@GLIBC_2.2.5                             /lib/x86_64-linux-gnu/libpthread.so.0
                                                  /lib/x86_64-linux-gnu/libc.so.6
pwrite64@GLIBC_2.2.5                              /lib/x86_64-linux-gnu/libpthread.so.0
pwrite@@GLIBC_2.2.5                               /lib/x86_64-linux-gnu/libpthread.so.0
                                                  /lib/x86_64-linux-gnu/libc.so.6
pwrite@GLIBC_2.2.5                                /lib/x86_64-linux-gnu/libpthread.so.0
random                                            /lib/x86_64-linux-gnu/libc.so.6
random@@GLIBC_2.2.5                               /lib/x86_64-linux-gnu/libc.so.6
random@GLIBC_2.2.5                                /lib/x86_64-linux-gnu/libc.so.6
random_r                                          /lib/x86_64-linux-gnu/libc.so.6
random_r@@GLIBC_2.2.5                             /lib/x86_64-linux-gnu/libc.so.6
random_r@GLIBC_2.2.5                              /lib/x86_64-linux-gnu/libc.so.6
rdline_add_history                                /root/hpc/x86_64-native-linuxapp-gcc/lib/librte_cmdline.a(cmdline_rdline.o)
                                                  /root/hpc/x86_64-native-linuxapp-gcc/lib/librte_cmdline.a(cmdline.o)
rdline_char_in                                    /root/hpc/x86_64-native-linuxapp-gcc/lib/librte_cmdline.a(cmdline_rdline.o)
                                                  /root/hpc/x86_64-native-linuxapp-gcc/lib/librte_cmdline.a(cmdline.o)
rdline_clear_history                              /root/hpc/x86_64-native-linuxapp-gcc/lib/librte_cmdline.a(cmdline_rdline.o)
rdline_get_buffer                                 /root/hpc/x86_64-native-linuxapp-gcc/lib/librte_cmdline.a(cmdline_rdline.o)
                                                  /root/hpc/x86_64-native-linuxapp-gcc/lib/librte_cmdline.a(cmdline.o)
rdline_get_history_item                           /root/hpc/x86_64-native-linuxapp-gcc/lib/librte_cmdline.a(cmdline_rdline.o)
                                                  /root/hpc/x86_64-native-linuxapp-gcc/lib/librte_cmdline.a(cmdline.o)
rdline_init                                       /root/hpc/x86_64-native-linuxapp-gcc/lib/librte_cmdline.a(cmdline_rdline.o)
                                                  /root/hpc/x86_64-native-linuxapp-gcc/lib/librte_cmdline.a(cmdline.o)
rdline_newline                                    /root/hpc/x86_64-native-linuxapp-gcc/lib/librte_cmdline.a(cmdline_rdline.o)
                                                  /root/hpc/x86_64-native-linuxapp-gcc/lib/librte_cmdline.a(cmdline.o)
rdline_quit                                       /root/hpc/x86_64-native-linuxapp-gcc/lib/librte_cmdline.a(cmdline_rdline.o)
                                                  /root/hpc/x86_64-native-linuxapp-gcc/lib/librte_cmdline.a(cmdline.o)
rdline_redisplay                                  /root/hpc/x86_64-native-linuxapp-gcc/lib/librte_cmdline.a(cmdline_rdline.o)
rdline_reset                                      /root/hpc/x86_64-native-linuxapp-gcc/lib/librte_cmdline.a(cmdline_rdline.o)
rdline_restart                                    /root/hpc/x86_64-native-linuxapp-gcc/lib/librte_cmdline.a(cmdline_rdline.o)
rdline_stop                                       /root/hpc/x86_64-native-linuxapp-gcc/lib/librte_cmdline.a(cmdline_rdline.o)
re_comp                                           /lib/x86_64-linux-gnu/libc.so.6
re_comp@@GLIBC_2.2.5                              /lib/x86_64-linux-gnu/libc.so.6
re_comp@GLIBC_2.2.5                               /lib/x86_64-linux-gnu/libc.so.6
re_compile_fastmap                                /lib/x86_64-linux-gnu/libc.so.6
re_compile_fastmap@@GLIBC_2.2.5                   /lib/x86_64-linux-gnu/libc.so.6
re_compile_fastmap@GLIBC_2.2.5                    /lib/x86_64-linux-gnu/libc.so.6
re_compile_pattern                                /lib/x86_64-linux-gnu/libc.so.6
re_compile_pattern@@GLIBC_2.2.5                   /lib/x86_64-linux-gnu/libc.so.6
re_compile_pattern@GLIBC_2.2.5                    /lib/x86_64-linux-gnu/libc.so.6
re_exec                                           /lib/x86_64-linux-gnu/libc.so.6
re_exec@@GLIBC_2.2.5                              /lib/x86_64-linux-gnu/libc.so.6
re_exec@GLIBC_2.2.5                               /lib/x86_64-linux-gnu/libc.so.6
re_match                                          /lib/x86_64-linux-gnu/libc.so.6
re_match@@GLIBC_2.2.5                             /lib/x86_64-linux-gnu/libc.so.6
re_match@GLIBC_2.2.5                              /lib/x86_64-linux-gnu/libc.so.6
re_match_2                                        /lib/x86_64-linux-gnu/libc.so.6
re_match_2@@GLIBC_2.2.5                           /lib/x86_64-linux-gnu/libc.so.6
re_match_2@GLIBC_2.2.5                            /lib/x86_64-linux-gnu/libc.so.6
re_search                                         /lib/x86_64-linux-gnu/libc.so.6
re_search@@GLIBC_2.2.5                            /lib/x86_64-linux-gnu/libc.so.6
re_search@GLIBC_2.2.5                             /lib/x86_64-linux-gnu/libc.so.6
re_search_2                                       /lib/x86_64-linux-gnu/libc.so.6
re_search_2@@GLIBC_2.2.5                          /lib/x86_64-linux-gnu/libc.so.6
re_search_2@GLIBC_2.2.5                           /lib/x86_64-linux-gnu/libc.so.6
re_set_registers                                  /lib/x86_64-linux-gnu/libc.so.6
re_set_registers@@GLIBC_2.2.5                     /lib/x86_64-linux-gnu/libc.so.6
re_set_registers@GLIBC_2.2.5                      /lib/x86_64-linux-gnu/libc.so.6
re_set_syntax                                     /lib/x86_64-linux-gnu/libc.so.6
re_set_syntax@@GLIBC_2.2.5                        /lib/x86_64-linux-gnu/libc.so.6
re_set_syntax@GLIBC_2.2.5                         /lib/x86_64-linux-gnu/libc.so.6
read                                              /lib/x86_64-linux-gnu/libpthread.so.0
                                                  /root/hpc/x86_64-native-linuxapp-gcc/lib/librte_cmdline.a(cmdline.o)
                                                  /root/hpc/x86_64-native-linuxapp-gcc/lib/librte_eal.a(eal_thread.o)
                                                  /root/hpc/x86_64-native-linuxapp-gcc/lib/librte_eal.a(eal_memory.o)
read@@GLIBC_2.2.5                                 /lib/x86_64-linux-gnu/libpthread.so.0
                                                  /lib/x86_64-linux-gnu/libc.so.6
read@GLIBC_2.2.5                                  /lib/x86_64-linux-gnu/libpthread.so.0
                                                  /usr/lib/gcc/x86_64-linux-gnu/4.8/../../../x86_64-linux-gnu/librt.so
readahead                                         /lib/x86_64-linux-gnu/libc.so.6
readahead@@GLIBC_2.3                              /lib/x86_64-linux-gnu/libc.so.6
readahead@GLIBC_2.3                               /lib/x86_64-linux-gnu/libc.so.6
readdir                                           /lib/x86_64-linux-gnu/libc.so.6
                                                  /root/hpc/x86_64-native-linuxapp-gcc/lib/librte_eal.a(eal_hugepage_info.o)
readdir64                                         /lib/x86_64-linux-gnu/libc.so.6
readdir64@@GLIBC_2.2.5                            /lib/x86_64-linux-gnu/libc.so.6
readdir64@GLIBC_2.2.5                             /lib/x86_64-linux-gnu/libc.so.6
readdir64_r                                       /lib/x86_64-linux-gnu/libc.so.6
readdir64_r@@GLIBC_2.2.5                          /lib/x86_64-linux-gnu/libc.so.6
readdir64_r@GLIBC_2.2.5                           /lib/x86_64-linux-gnu/libc.so.6
readdir@@GLIBC_2.2.5                              /lib/x86_64-linux-gnu/libc.so.6
readdir@GLIBC_2.2.5                               /lib/x86_64-linux-gnu/libc.so.6
readdir_r                                         /lib/x86_64-linux-gnu/libc.so.6
readdir_r@@GLIBC_2.2.5                            /lib/x86_64-linux-gnu/libc.so.6
readdir_r@GLIBC_2.2.5                             /lib/x86_64-linux-gnu/libc.so.6
readlink                                          /lib/x86_64-linux-gnu/libc.so.6
readlink@@GLIBC_2.2.5                             /lib/x86_64-linux-gnu/libc.so.6
readlink@GLIBC_2.2.5                              /lib/x86_64-linux-gnu/libc.so.6
readv                                             /lib/x86_64-linux-gnu/libc.so.6
readv@@GLIBC_2.2.5                                /lib/x86_64-linux-gnu/libc.so.6
readv@GLIBC_2.2.5                                 /lib/x86_64-linux-gnu/libc.so.6
realloc                                           /lib/x86_64-linux-gnu/libc.so.6
                                                  /root/hpc/x86_64-native-linuxapp-gcc/lib/librte_cfgfile.a(rte_cfgfile.o)
realloc@@GLIBC_2.2.5                              /lib/x86_64-linux-gnu/libc.so.6
                                                  /lib/x86_64-linux-gnu/ld-linux-x86-64.so.2
realloc@GLIBC_2.2.5                               /lib/x86_64-linux-gnu/libc.so.6
                                                  /lib/x86_64-linux-gnu/libpthread.so.0
                                                  /usr/lib/gcc/x86_64-linux-gnu/4.8/../../../x86_64-linux-gnu/librt.so
recv                                              /lib/x86_64-linux-gnu/libpthread.so.0
recv@@GLIBC_2.2.5                                 /lib/x86_64-linux-gnu/libpthread.so.0
                                                  /lib/x86_64-linux-gnu/libc.so.6
recv@GLIBC_2.2.5                                  /lib/x86_64-linux-gnu/libpthread.so.0
                                                  /usr/lib/gcc/x86_64-linux-gnu/4.8/../../../x86_64-linux-gnu/librt.so
recvfrom                                          /lib/x86_64-linux-gnu/libpthread.so.0
recvfrom@@GLIBC_2.2.5                             /lib/x86_64-linux-gnu/libpthread.so.0
                                                  /lib/x86_64-linux-gnu/libc.so.6
recvfrom@GLIBC_2.2.5                              /lib/x86_64-linux-gnu/libpthread.so.0
recvmsg                                           /lib/x86_64-linux-gnu/libpthread.so.0
recvmsg@@GLIBC_2.2.5                              /lib/x86_64-linux-gnu/libpthread.so.0
                                                  /lib/x86_64-linux-gnu/libc.so.6
recvmsg@GLIBC_2.2.5                               /lib/x86_64-linux-gnu/libpthread.so.0
regcomp                                           /lib/x86_64-linux-gnu/libc.so.6
regcomp@@GLIBC_2.2.5                              /lib/x86_64-linux-gnu/libc.so.6
regcomp@GLIBC_2.2.5                               /lib/x86_64-linux-gnu/libc.so.6
regerror                                          /lib/x86_64-linux-gnu/libc.so.6
regerror@@GLIBC_2.2.5                             /lib/x86_64-linux-gnu/libc.so.6
regerror@GLIBC_2.2.5                              /lib/x86_64-linux-gnu/libc.so.6
regfree                                           /lib/x86_64-linux-gnu/libc.so.6
regfree@@GLIBC_2.2.5                              /lib/x86_64-linux-gnu/libc.so.6
regfree@GLIBC_2.2.5                               /lib/x86_64-linux-gnu/libc.so.6
register_printf_function                          /lib/x86_64-linux-gnu/libc.so.6
register_printf_function@@GLIBC_2.2.5             /lib/x86_64-linux-gnu/libc.so.6
register_printf_function@GLIBC_2.2.5              /lib/x86_64-linux-gnu/libc.so.6
register_printf_modifier                          /lib/x86_64-linux-gnu/libc.so.6
register_printf_modifier@@GLIBC_2.10              /lib/x86_64-linux-gnu/libc.so.6
register_printf_modifier@GLIBC_2.10               /lib/x86_64-linux-gnu/libc.so.6
register_printf_specifier                         /lib/x86_64-linux-gnu/libc.so.6
register_printf_specifier@@GLIBC_2.10             /lib/x86_64-linux-gnu/libc.so.6
register_printf_specifier@GLIBC_2.10              /lib/x86_64-linux-gnu/libc.so.6
register_printf_type                              /lib/x86_64-linux-gnu/libc.so.6
register_printf_type@@GLIBC_2.10                  /lib/x86_64-linux-gnu/libc.so.6
register_printf_type@GLIBC_2.10                   /lib/x86_64-linux-gnu/libc.so.6
remainder                                         /usr/lib/gcc/x86_64-linux-gnu/4.8/../../../x86_64-linux-gnu/libm.so
remainder@@GLIBC_2.2.5                            /usr/lib/gcc/x86_64-linux-gnu/4.8/../../../x86_64-linux-gnu/libm.so
remainder@GLIBC_2.2.5                             /usr/lib/gcc/x86_64-linux-gnu/4.8/../../../x86_64-linux-gnu/libm.so
remainderf                                        /usr/lib/gcc/x86_64-linux-gnu/4.8/../../../x86_64-linux-gnu/libm.so
remainderf@@GLIBC_2.2.5                           /usr/lib/gcc/x86_64-linux-gnu/4.8/../../../x86_64-linux-gnu/libm.so
remainderf@GLIBC_2.2.5                            /usr/lib/gcc/x86_64-linux-gnu/4.8/../../../x86_64-linux-gnu/libm.so
remainderl                                        /usr/lib/gcc/x86_64-linux-gnu/4.8/../../../x86_64-linux-gnu/libm.so
remainderl@@GLIBC_2.2.5                           /usr/lib/gcc/x86_64-linux-gnu/4.8/../../../x86_64-linux-gnu/libm.so
remainderl@GLIBC_2.2.5                            /usr/lib/gcc/x86_64-linux-gnu/4.8/../../../x86_64-linux-gnu/libm.so
remap_file_pages                                  /lib/x86_64-linux-gnu/libc.so.6
remap_file_pages@@GLIBC_2.3.3                     /lib/x86_64-linux-gnu/libc.so.6
remap_file_pages@GLIBC_2.3.3                      /lib/x86_64-linux-gnu/libc.so.6
remquo                                            /usr/lib/gcc/x86_64-linux-gnu/4.8/../../../x86_64-linux-gnu/libm.so
remquo@@GLIBC_2.2.5                               /usr/lib/gcc/x86_64-linux-gnu/4.8/../../../x86_64-linux-gnu/libm.so
remquo@GLIBC_2.2.5                                /usr/lib/gcc/x86_64-linux-gnu/4.8/../../../x86_64-linux-gnu/libm.so
remquof                                           /usr/lib/gcc/x86_64-linux-gnu/4.8/../../../x86_64-linux-gnu/libm.so
remquof@@GLIBC_2.2.5                              /usr/lib/gcc/x86_64-linux-gnu/4.8/../../../x86_64-linux-gnu/libm.so
remquof@GLIBC_2.2.5                               /usr/lib/gcc/x86_64-linux-gnu/4.8/../../../x86_64-linux-gnu/libm.so
remquol                                           /usr/lib/gcc/x86_64-linux-gnu/4.8/../../../x86_64-linux-gnu/libm.so
remquol@@GLIBC_2.2.5                              /usr/lib/gcc/x86_64-linux-gnu/4.8/../../../x86_64-linux-gnu/libm.so
remquol@GLIBC_2.2.5                               /usr/lib/gcc/x86_64-linux-gnu/4.8/../../../x86_64-linux-gnu/libm.so
rindex                                            /lib/x86_64-linux-gnu/libc.so.6
rindex@@GLIBC_2.2.5                               /lib/x86_64-linux-gnu/libc.so.6
rindex@GLIBC_2.2.5                                /lib/x86_64-linux-gnu/libc.so.6
rint                                              /usr/lib/gcc/x86_64-linux-gnu/4.8/../../../x86_64-linux-gnu/libm.so
rint@@GLIBC_2.2.5                                 /usr/lib/gcc/x86_64-linux-gnu/4.8/../../../x86_64-linux-gnu/libm.so
rint@GLIBC_2.2.5                                  /usr/lib/gcc/x86_64-linux-gnu/4.8/../../../x86_64-linux-gnu/libm.so
rintf                                             /usr/lib/gcc/x86_64-linux-gnu/4.8/../../../x86_64-linux-gnu/libm.so
rintf@@GLIBC_2.2.5                                /usr/lib/gcc/x86_64-linux-gnu/4.8/../../../x86_64-linux-gnu/libm.so
rintf@GLIBC_2.2.5                                 /usr/lib/gcc/x86_64-linux-gnu/4.8/../../../x86_64-linux-gnu/libm.so
rintl                                             /usr/lib/gcc/x86_64-linux-gnu/4.8/../../../x86_64-linux-gnu/libm.so
rintl@@GLIBC_2.2.5                                /usr/lib/gcc/x86_64-linux-gnu/4.8/../../../x86_64-linux-gnu/libm.so
rintl@GLIBC_2.2.5                                 /usr/lib/gcc/x86_64-linux-gnu/4.8/../../../x86_64-linux-gnu/libm.so
rmdir                                             /lib/x86_64-linux-gnu/libc.so.6
rmdir@@GLIBC_2.2.5                                /lib/x86_64-linux-gnu/libc.so.6
rmdir@GLIBC_2.2.5                                 /lib/x86_64-linux-gnu/libc.so.6
round                                             /usr/lib/gcc/x86_64-linux-gnu/4.8/../../../x86_64-linux-gnu/libm.so
round@@GLIBC_2.2.5                                /usr/lib/gcc/x86_64-linux-gnu/4.8/../../../x86_64-linux-gnu/libm.so
round@GLIBC_2.2.5                                 /usr/lib/gcc/x86_64-linux-gnu/4.8/../../../x86_64-linux-gnu/libm.so
roundf                                            /usr/lib/gcc/x86_64-linux-gnu/4.8/../../../x86_64-linux-gnu/libm.so
roundf@@GLIBC_2.2.5                               /usr/lib/gcc/x86_64-linux-gnu/4.8/../../../x86_64-linux-gnu/libm.so
roundf@GLIBC_2.2.5                                /usr/lib/gcc/x86_64-linux-gnu/4.8/../../../x86_64-linux-gnu/libm.so
roundl                                            /usr/lib/gcc/x86_64-linux-gnu/4.8/../../../x86_64-linux-gnu/libm.so
roundl@@GLIBC_2.2.5                               /usr/lib/gcc/x86_64-linux-gnu/4.8/../../../x86_64-linux-gnu/libm.so
roundl@GLIBC_2.2.5                                /usr/lib/gcc/x86_64-linux-gnu/4.8/../../../x86_64-linux-gnu/libm.so
rte_calloc                                        /root/hpc/x86_64-native-linuxapp-gcc/lib/librte_malloc.a(rte_malloc.o)
rte_calloc_socket                                 /root/hpc/x86_64-native-linuxapp-gcc/lib/librte_malloc.a(rte_malloc.o)
rte_cfgfile_close                                 /root/hpc/x86_64-native-linuxapp-gcc/lib/librte_cfgfile.a(rte_cfgfile.o)
rte_cfgfile_get_entry                             /root/hpc/x86_64-native-linuxapp-gcc/lib/librte_cfgfile.a(rte_cfgfile.o)
rte_cfgfile_has_entry                             /root/hpc/x86_64-native-linuxapp-gcc/lib/librte_cfgfile.a(rte_cfgfile.o)
rte_cfgfile_has_section                           /root/hpc/x86_64-native-linuxapp-gcc/lib/librte_cfgfile.a(rte_cfgfile.o)
rte_cfgfile_load                                  /root/hpc/x86_64-native-linuxapp-gcc/lib/librte_cfgfile.a(rte_cfgfile.o)
rte_cfgfile_num_sections                          /root/hpc/x86_64-native-linuxapp-gcc/lib/librte_cfgfile.a(rte_cfgfile.o)
rte_cfgfile_section_entries                       /root/hpc/x86_64-native-linuxapp-gcc/lib/librte_cfgfile.a(rte_cfgfile.o)
rte_cfgfile_section_num_entries                   /root/hpc/x86_64-native-linuxapp-gcc/lib/librte_cfgfile.a(rte_cfgfile.o)
rte_cfgfile_sections                              /root/hpc/x86_64-native-linuxapp-gcc/lib/librte_cfgfile.a(rte_cfgfile.o)
rte_cpu_check_supported                           /root/hpc/x86_64-native-linuxapp-gcc/lib/librte_eal.a(eal_common_cpuflags.o)
rte_ctrlmbuf_init                                 /root/hpc/x86_64-native-linuxapp-gcc/lib/librte_mbuf.a(rte_mbuf.o)
rte_delay_us                                      /root/hpc/x86_64-native-linuxapp-gcc/lib/librte_eal.a(eal_timer.o)
rte_dump_physmem_layout                           /root/hpc/x86_64-native-linuxapp-gcc/lib/librte_eal.a(eal_common_memory.o)
rte_dump_registers                                /root/hpc/x86_64-native-linuxapp-gcc/lib/librte_eal.a(eal_debug.o)
rte_dump_stack                                    /root/hpc/x86_64-native-linuxapp-gcc/lib/librte_eal.a(eal_debug.o)
rte_dump_tailq                                    /root/hpc/x86_64-native-linuxapp-gcc/lib/librte_eal.a(eal_common_tailqs.o)
rte_eal_check_module                              /root/hpc/x86_64-native-linuxapp-gcc/lib/librte_eal.a(eal.o)
rte_eal_common_log_init                           /root/hpc/x86_64-native-linuxapp-gcc/lib/librte_eal.a(eal_common_log.o)
                                                  /root/hpc/x86_64-native-linuxapp-gcc/lib/librte_eal.a(eal_log.o)
rte_eal_cpu_init                                  /root/hpc/x86_64-native-linuxapp-gcc/lib/librte_eal.a(eal_lcore.o)
                                                  /root/hpc/x86_64-native-linuxapp-gcc/lib/librte_eal.a(eal.o)
rte_eal_dev_init                                  /root/hpc/x86_64-native-linuxapp-gcc/lib/librte_eal.a(eal_common_dev.o)
rte_eal_devargs_add                               /root/hpc/x86_64-native-linuxapp-gcc/lib/librte_eal.a(eal_common_devargs.o)
                                                  /root/hpc/x86_64-native-linuxapp-gcc/lib/librte_eal.a(eal_common_options.o)
rte_eal_devargs_dump                              /root/hpc/x86_64-native-linuxapp-gcc/lib/librte_eal.a(eal_common_devargs.o)
rte_eal_devargs_type_count                        /root/hpc/x86_64-native-linuxapp-gcc/lib/librte_eal.a(eal_common_devargs.o)
rte_eal_driver_register                           /root/hpc/x86_64-native-linuxapp-gcc/lib/librte_eal.a(eal_common_dev.o)
rte_eal_driver_unregister                         /root/hpc/x86_64-native-linuxapp-gcc/lib/librte_eal.a(eal_common_dev.o)
rte_eal_get_configuration                         /root/hpc/x86_64-native-linuxapp-gcc/lib/librte_eal.a(eal.o)
                                                  /root/hpc/x86_64-native-linuxapp-gcc/lib/librte_eal.a(eal_common_options.o)
                                                  /root/hpc/x86_64-native-linuxapp-gcc/lib/librte_eal.a(eal_common_tailqs.o)
                                                  /root/hpc/x86_64-native-linuxapp-gcc/lib/librte_eal.a(eal_common_memory.o)
                                                  /root/hpc/x86_64-native-linuxapp-gcc/lib/librte_eal.a(eal_common_launch.o)
                                                  /root/hpc/x86_64-native-linuxapp-gcc/lib/librte_eal.a(eal_common_memzone.o)
                                                  /root/hpc/x86_64-native-linuxapp-gcc/lib/librte_eal.a(eal_lcore.o)
                                                  /root/hpc/x86_64-native-linuxapp-gcc/lib/librte_eal.a(eal_thread.o)
                                                  /root/hpc/x86_64-native-linuxapp-gcc/lib/librte_eal.a(eal_memory.o)
                                                  /root/hpc/x86_64-native-linuxapp-gcc/lib/librte_ring.a(rte_ring.o)
                                                  /root/hpc/x86_64-native-linuxapp-gcc/lib/librte_mempool.a(rte_mempool.o)
                                                  /root/hpc/x86_64-native-linuxapp-gcc/lib/librte_malloc.a(malloc_heap.o)
                                                  /root/hpc/x86_64-native-linuxapp-gcc/lib/librte_malloc.a(rte_malloc.o)
rte_eal_get_lcore_state                           /root/hpc/x86_64-native-linuxapp-gcc/lib/librte_eal.a(eal_common_launch.o)
rte_eal_get_physmem_layout                        /root/hpc/x86_64-native-linuxapp-gcc/lib/librte_eal.a(eal_common_memory.o)
                                                  /root/hpc/x86_64-native-linuxapp-gcc/lib/librte_eal.a(eal_common_memzone.o)
                                                  /root/hpc/x86_64-native-linuxapp-gcc/lib/librte_eal.a(eal.o)
rte_eal_get_physmem_size                          /root/hpc/x86_64-native-linuxapp-gcc/lib/librte_eal.a(eal_common_memory.o)
rte_eal_has_hugepages                             /root/hpc/x86_64-native-linuxapp-gcc/lib/librte_eal.a(eal.o)
                                                  /root/hpc/x86_64-native-linuxapp-gcc/lib/librte_mempool.a(rte_mempool.o)
                                                  /root/hpc/x86_64-native-linuxapp-gcc/lib/librte_mbuf.a(rte_mbuf.o)
rte_eal_init                                      /root/hpc/x86_64-native-linuxapp-gcc/lib/librte_eal.a(eal.o)
                                                  main.o
rte_eal_iopl_init                                 /root/hpc/x86_64-native-linuxapp-gcc/lib/librte_eal.a(eal.o)
rte_eal_lcore_role                                /root/hpc/x86_64-native-linuxapp-gcc/lib/librte_eal.a(eal.o)
rte_eal_log_early_init                            /root/hpc/x86_64-native-linuxapp-gcc/lib/librte_eal.a(eal_log.o)
                                                  /root/hpc/x86_64-native-linuxapp-gcc/lib/librte_eal.a(eal.o)
rte_eal_log_init                                  /root/hpc/x86_64-native-linuxapp-gcc/lib/librte_eal.a(eal_log.o)
                                                  /root/hpc/x86_64-native-linuxapp-gcc/lib/librte_eal.a(eal.o)
rte_eal_memory_init                               /root/hpc/x86_64-native-linuxapp-gcc/lib/librte_eal.a(eal_memory.o)
                                                  /root/hpc/x86_64-native-linuxapp-gcc/lib/librte_eal.a(eal.o)
rte_eal_memzone_init                              /root/hpc/x86_64-native-linuxapp-gcc/lib/librte_eal.a(eal_common_memzone.o)
                                                  /root/hpc/x86_64-native-linuxapp-gcc/lib/librte_eal.a(eal.o)
rte_eal_mp_remote_launch                          /root/hpc/x86_64-native-linuxapp-gcc/lib/librte_eal.a(eal_common_launch.o)
                                                  /root/hpc/x86_64-native-linuxapp-gcc/lib/librte_eal.a(eal.o)
rte_eal_mp_wait_lcore                             /root/hpc/x86_64-native-linuxapp-gcc/lib/librte_eal.a(eal_common_launch.o)
                                                  /root/hpc/x86_64-native-linuxapp-gcc/lib/librte_eal.a(eal.o)
rte_eal_parse_devargs_str                         /root/hpc/x86_64-native-linuxapp-gcc/lib/librte_eal.a(eal_common_devargs.o)
rte_eal_process_type                              /root/hpc/x86_64-native-linuxapp-gcc/lib/librte_eal.a(eal.o)
                                                  /root/hpc/x86_64-native-linuxapp-gcc/lib/librte_eal.a(eal_common_tailqs.o)
                                                  /root/hpc/x86_64-native-linuxapp-gcc/lib/librte_eal.a(eal_common_memzone.o)
                                                  /root/hpc/x86_64-native-linuxapp-gcc/lib/librte_eal.a(eal_memory.o)
rte_eal_remote_launch                             /root/hpc/x86_64-native-linuxapp-gcc/lib/librte_eal.a(eal_thread.o)
                                                  /root/hpc/x86_64-native-linuxapp-gcc/lib/librte_eal.a(eal_common_launch.o)
rte_eal_tailq_lookup                              /root/hpc/x86_64-native-linuxapp-gcc/lib/librte_eal.a(eal_common_tailqs.o)
rte_eal_tailq_register                            /root/hpc/x86_64-native-linuxapp-gcc/lib/librte_eal.a(eal_common_tailqs.o)
                                                  /root/hpc/x86_64-native-linuxapp-gcc/lib/librte_ring.a(rte_ring.o)
                                                  /root/hpc/x86_64-native-linuxapp-gcc/lib/librte_mempool.a(rte_mempool.o)
rte_eal_tailqs_init                               /root/hpc/x86_64-native-linuxapp-gcc/lib/librte_eal.a(eal_common_tailqs.o)
                                                  /root/hpc/x86_64-native-linuxapp-gcc/lib/librte_eal.a(eal.o)
rte_eal_timer_init                                /root/hpc/x86_64-native-linuxapp-gcc/lib/librte_eal.a(eal_timer.o)
rte_eal_vdev_init                                 /root/hpc/x86_64-native-linuxapp-gcc/lib/librte_eal.a(eal_common_dev.o)
rte_eal_wait_lcore                                /root/hpc/x86_64-native-linuxapp-gcc/lib/librte_eal.a(eal_common_launch.o)
rte_exit                                          /root/hpc/x86_64-native-linuxapp-gcc/lib/librte_eal.a(eal_debug.o)
                                                  /root/hpc/x86_64-native-linuxapp-gcc/lib/librte_eal.a(eal.o)
rte_free                                          /root/hpc/x86_64-native-linuxapp-gcc/lib/librte_malloc.a(rte_malloc.o)
                                                  /root/hpc/x86_64-native-linuxapp-gcc/lib/librte_ring.a(rte_ring.o)
                                                  /root/hpc/x86_64-native-linuxapp-gcc/lib/librte_mempool.a(rte_mempool.o)
rte_get_log_level                                 /root/hpc/x86_64-native-linuxapp-gcc/lib/librte_eal.a(eal_common_log.o)
rte_get_log_type                                  /root/hpc/x86_64-native-linuxapp-gcc/lib/librte_eal.a(eal_common_log.o)
rte_get_rx_ol_flag_name                           /root/hpc/x86_64-native-linuxapp-gcc/lib/librte_mbuf.a(rte_mbuf.o)
rte_get_tsc_hz                                    /root/hpc/x86_64-native-linuxapp-gcc/lib/librte_eal.a(eal_timer.o)
rte_get_tx_ol_flag_name                           /root/hpc/x86_64-native-linuxapp-gcc/lib/librte_mbuf.a(rte_mbuf.o)
rte_hexdump                                       /root/hpc/x86_64-native-linuxapp-gcc/lib/librte_eal.a(eal_common_hexdump.o)
                                                  /root/hpc/x86_64-native-linuxapp-gcc/lib/librte_mbuf.a(rte_mbuf.o)
rte_log                                           /root/hpc/x86_64-native-linuxapp-gcc/lib/librte_eal.a(eal_common_log.o)
                                                  /root/hpc/x86_64-native-linuxapp-gcc/lib/librte_eal.a(eal_common_thread.o)
                                                  /root/hpc/x86_64-native-linuxapp-gcc/lib/librte_eal.a(eal_common_options.o)
                                                  /root/hpc/x86_64-native-linuxapp-gcc/lib/librte_eal.a(eal_common_dev.o)
                                                  /root/hpc/x86_64-native-linuxapp-gcc/lib/librte_eal.a(eal_common_devargs.o)
                                                  /root/hpc/x86_64-native-linuxapp-gcc/lib/librte_eal.a(eal_common_tailqs.o)
                                                  /root/hpc/x86_64-native-linuxapp-gcc/lib/librte_eal.a(eal_common_memzone.o)
                                                  /root/hpc/x86_64-native-linuxapp-gcc/lib/librte_eal.a(eal_timer.o)
                                                  /root/hpc/x86_64-native-linuxapp-gcc/lib/librte_eal.a(eal_lcore.o)
                                                  /root/hpc/x86_64-native-linuxapp-gcc/lib/librte_eal.a(eal_debug.o)
                                                  /root/hpc/x86_64-native-linuxapp-gcc/lib/librte_eal.a(eal_thread.o)
                                                  /root/hpc/x86_64-native-linuxapp-gcc/lib/librte_eal.a(eal_memory.o)
                                                  /root/hpc/x86_64-native-linuxapp-gcc/lib/librte_eal.a(eal_hugepage_info.o)
                                                  /root/hpc/x86_64-native-linuxapp-gcc/lib/librte_eal.a(eal.o)
                                                  /root/hpc/x86_64-native-linuxapp-gcc/lib/librte_ring.a(rte_ring.o)
                                                  /root/hpc/x86_64-native-linuxapp-gcc/lib/librte_mempool.a(rte_mempool.o)
rte_log_add_in_history                            /root/hpc/x86_64-native-linuxapp-gcc/lib/librte_eal.a(eal_common_log.o)
                                                  /root/hpc/x86_64-native-linuxapp-gcc/lib/librte_eal.a(eal_log.o)
rte_log_cur_msg_loglevel                          /root/hpc/x86_64-native-linuxapp-gcc/lib/librte_eal.a(eal_common_log.o)
                                                  /root/hpc/x86_64-native-linuxapp-gcc/lib/librte_eal.a(eal_log.o)
rte_log_cur_msg_logtype                           /root/hpc/x86_64-native-linuxapp-gcc/lib/librte_eal.a(eal_common_log.o)
rte_log_dump_history                              /root/hpc/x86_64-native-linuxapp-gcc/lib/librte_eal.a(eal_common_log.o)
rte_log_set_history                               /root/hpc/x86_64-native-linuxapp-gcc/lib/librte_eal.a(eal_common_log.o)
                                                  /root/hpc/x86_64-native-linuxapp-gcc/lib/librte_eal.a(eal_debug.o)
rte_logs                                          /root/hpc/x86_64-native-linuxapp-gcc/lib/librte_eal.a(eal_common_log.o)
rte_malloc                                        /root/hpc/x86_64-native-linuxapp-gcc/lib/librte_malloc.a(rte_malloc.o)
rte_malloc_dump_stats                             /root/hpc/x86_64-native-linuxapp-gcc/lib/librte_malloc.a(rte_malloc.o)
rte_malloc_get_socket_stats                       /root/hpc/x86_64-native-linuxapp-gcc/lib/librte_malloc.a(rte_malloc.o)
rte_malloc_set_limit                              /root/hpc/x86_64-native-linuxapp-gcc/lib/librte_malloc.a(rte_malloc.o)
rte_malloc_socket                                 /root/hpc/x86_64-native-linuxapp-gcc/lib/librte_malloc.a(rte_malloc.o)
rte_malloc_validate                               /root/hpc/x86_64-native-linuxapp-gcc/lib/librte_malloc.a(rte_malloc.o)
rte_malloc_virt2phy                               /root/hpc/x86_64-native-linuxapp-gcc/lib/librte_malloc.a(rte_malloc.o)
rte_mbuf_sanity_check                             /root/hpc/x86_64-native-linuxapp-gcc/lib/librte_mbuf.a(rte_mbuf.o)
rte_mem_lock_page                                 /root/hpc/x86_64-native-linuxapp-gcc/lib/librte_eal.a(eal_memory.o)
rte_mem_virt2phy                                  /root/hpc/x86_64-native-linuxapp-gcc/lib/librte_eal.a(eal_memory.o)
                                                  /root/hpc/x86_64-native-linuxapp-gcc/lib/librte_mbuf.a(rte_mbuf.o)
rte_memdump                                       /root/hpc/x86_64-native-linuxapp-gcc/lib/librte_eal.a(eal_common_hexdump.o)
rte_memory_get_nchannel                           /root/hpc/x86_64-native-linuxapp-gcc/lib/librte_eal.a(eal_common_memory.o)
                                                  /root/hpc/x86_64-native-linuxapp-gcc/lib/librte_mempool.a(rte_mempool.o)
rte_memory_get_nrank                              /root/hpc/x86_64-native-linuxapp-gcc/lib/librte_eal.a(eal_common_memory.o)
                                                  /root/hpc/x86_64-native-linuxapp-gcc/lib/librte_mempool.a(rte_mempool.o)
rte_mempool_audit                                 /root/hpc/x86_64-native-linuxapp-gcc/lib/librte_mempool.a(rte_mempool.o)
rte_mempool_calc_obj_size                         /root/hpc/x86_64-native-linuxapp-gcc/lib/librte_mempool.a(rte_mempool.o)
rte_mempool_count                                 /root/hpc/x86_64-native-linuxapp-gcc/lib/librte_mempool.a(rte_mempool.o)
rte_mempool_create                                /root/hpc/x86_64-native-linuxapp-gcc/lib/librte_mempool.a(rte_mempool.o)
                                                  /root/hpc/x86_64-native-linuxapp-gcc/lib/librte_eal.a(eal_common_log.o)
                                                  /root/hpc/x86_64-native-linuxapp-gcc/lib/librte_mbuf.a(rte_mbuf.o)
rte_mempool_dump                                  /root/hpc/x86_64-native-linuxapp-gcc/lib/librte_mempool.a(rte_mempool.o)
rte_mempool_list_dump                             /root/hpc/x86_64-native-linuxapp-gcc/lib/librte_mempool.a(rte_mempool.o)
rte_mempool_lookup                                /root/hpc/x86_64-native-linuxapp-gcc/lib/librte_mempool.a(rte_mempool.o)
                                                  /root/hpc/x86_64-native-linuxapp-gcc/lib/librte_eal.a(eal_common_log.o)
rte_mempool_obj_iter                              /root/hpc/x86_64-native-linuxapp-gcc/lib/librte_mempool.a(rte_mempool.o)
rte_mempool_walk                                  /root/hpc/x86_64-native-linuxapp-gcc/lib/librte_mempool.a(rte_mempool.o)
rte_mempool_xmem_create                           /root/hpc/x86_64-native-linuxapp-gcc/lib/librte_mempool.a(rte_mempool.o)
rte_mempool_xmem_size                             /root/hpc/x86_64-native-linuxapp-gcc/lib/librte_mempool.a(rte_mempool.o)
rte_mempool_xmem_usage                            /root/hpc/x86_64-native-linuxapp-gcc/lib/librte_mempool.a(rte_mempool.o)
rte_memzone_dump                                  /root/hpc/x86_64-native-linuxapp-gcc/lib/librte_eal.a(eal_common_memzone.o)
rte_memzone_lookup                                /root/hpc/x86_64-native-linuxapp-gcc/lib/librte_eal.a(eal_common_memzone.o)
rte_memzone_reserve                               /root/hpc/x86_64-native-linuxapp-gcc/lib/librte_eal.a(eal_common_memzone.o)
                                                  /root/hpc/x86_64-native-linuxapp-gcc/lib/librte_ring.a(rte_ring.o)
                                                  /root/hpc/x86_64-native-linuxapp-gcc/lib/librte_mempool.a(rte_mempool.o)
                                                  /root/hpc/x86_64-native-linuxapp-gcc/lib/librte_malloc.a(malloc_heap.o)
rte_memzone_reserve_aligned                       /root/hpc/x86_64-native-linuxapp-gcc/lib/librte_eal.a(eal_common_memzone.o)
rte_memzone_reserve_bounded                       /root/hpc/x86_64-native-linuxapp-gcc/lib/librte_eal.a(eal_common_memzone.o)
rte_memzone_walk                                  /root/hpc/x86_64-native-linuxapp-gcc/lib/librte_eal.a(eal_common_memzone.o)
rte_openlog_stream                                /root/hpc/x86_64-native-linuxapp-gcc/lib/librte_eal.a(eal_common_log.o)
                                                  /root/hpc/x86_64-native-linuxapp-gcc/lib/librte_eal.a(eal_log.o)
rte_pktmbuf_dump                                  /root/hpc/x86_64-native-linuxapp-gcc/lib/librte_mbuf.a(rte_mbuf.o)
rte_pktmbuf_init                                  /root/hpc/x86_64-native-linuxapp-gcc/lib/librte_mbuf.a(rte_mbuf.o)
rte_pktmbuf_pool_create                           /root/hpc/x86_64-native-linuxapp-gcc/lib/librte_mbuf.a(rte_mbuf.o)
rte_pktmbuf_pool_init                             /root/hpc/x86_64-native-linuxapp-gcc/lib/librte_mbuf.a(rte_mbuf.o)
rte_realloc                                       /root/hpc/x86_64-native-linuxapp-gcc/lib/librte_malloc.a(rte_malloc.o)
rte_ring_create                                   /root/hpc/x86_64-native-linuxapp-gcc/lib/librte_ring.a(rte_ring.o)
                                                  /root/hpc/x86_64-native-linuxapp-gcc/lib/librte_mempool.a(rte_mempool.o)
rte_ring_dump                                     /root/hpc/x86_64-native-linuxapp-gcc/lib/librte_ring.a(rte_ring.o)
rte_ring_get_memsize                              /root/hpc/x86_64-native-linuxapp-gcc/lib/librte_ring.a(rte_ring.o)
rte_ring_init                                     /root/hpc/x86_64-native-linuxapp-gcc/lib/librte_ring.a(rte_ring.o)
rte_ring_list_dump                                /root/hpc/x86_64-native-linuxapp-gcc/lib/librte_ring.a(rte_ring.o)
rte_ring_lookup                                   /root/hpc/x86_64-native-linuxapp-gcc/lib/librte_ring.a(rte_ring.o)
rte_ring_set_water_mark                           /root/hpc/x86_64-native-linuxapp-gcc/lib/librte_ring.a(rte_ring.o)
rte_set_application_usage_hook                    /root/hpc/x86_64-native-linuxapp-gcc/lib/librte_eal.a(eal.o)
rte_set_log_level                                 /root/hpc/x86_64-native-linuxapp-gcc/lib/librte_eal.a(eal_common_log.o)
                                                  /root/hpc/x86_64-native-linuxapp-gcc/lib/librte_eal.a(eal.o)
rte_set_log_type                                  /root/hpc/x86_64-native-linuxapp-gcc/lib/librte_eal.a(eal_common_log.o)
rte_socket_id                                     /root/hpc/x86_64-native-linuxapp-gcc/lib/librte_eal.a(eal_common_thread.o)
                                                  /root/hpc/x86_64-native-linuxapp-gcc/lib/librte_malloc.a(rte_malloc.o)
rte_strerror                                      /root/hpc/x86_64-native-linuxapp-gcc/lib/librte_eal.a(eal_common_errno.o)
rte_strsplit                                      /root/hpc/x86_64-native-linuxapp-gcc/lib/librte_eal.a(eal_common_string_fns.o)
                                                  /root/hpc/x86_64-native-linuxapp-gcc/lib/librte_cfgfile.a(rte_cfgfile.o)
                                                  /root/hpc/x86_64-native-linuxapp-gcc/lib/librte_eal.a(eal_hugepage_info.o)
                                                  /root/hpc/x86_64-native-linuxapp-gcc/lib/librte_eal.a(eal.o)
rte_sys_gettid                                    /root/hpc/x86_64-native-linuxapp-gcc/lib/librte_eal.a(eal_thread.o)
rte_thread_get_affinity                           /root/hpc/x86_64-native-linuxapp-gcc/lib/librte_eal.a(eal_common_thread.o)
rte_thread_set_affinity                           /root/hpc/x86_64-native-linuxapp-gcc/lib/librte_eal.a(eal_common_thread.o)
                                                  /root/hpc/x86_64-native-linuxapp-gcc/lib/librte_eal.a(eal_thread.o)
rte_vlog                                          /root/hpc/x86_64-native-linuxapp-gcc/lib/librte_eal.a(eal_common_log.o)
                                                  /root/hpc/x86_64-native-linuxapp-gcc/lib/librte_eal.a(eal_debug.o)
rte_zmalloc                                       /root/hpc/x86_64-native-linuxapp-gcc/lib/librte_malloc.a(rte_malloc.o)
                                                  /root/hpc/x86_64-native-linuxapp-gcc/lib/librte_ring.a(rte_ring.o)
                                                  /root/hpc/x86_64-native-linuxapp-gcc/lib/librte_mempool.a(rte_mempool.o)
rte_zmalloc_socket                                /root/hpc/x86_64-native-linuxapp-gcc/lib/librte_malloc.a(rte_malloc.o)
sbrk                                              /lib/x86_64-linux-gnu/libc.so.6
sbrk@@GLIBC_2.2.5                                 /lib/x86_64-linux-gnu/libc.so.6
sbrk@GLIBC_2.2.5                                  /lib/x86_64-linux-gnu/libc.so.6
scalb                                             /usr/lib/gcc/x86_64-linux-gnu/4.8/../../../x86_64-linux-gnu/libm.so
scalb@@GLIBC_2.2.5                                /usr/lib/gcc/x86_64-linux-gnu/4.8/../../../x86_64-linux-gnu/libm.so
scalb@GLIBC_2.2.5                                 /usr/lib/gcc/x86_64-linux-gnu/4.8/../../../x86_64-linux-gnu/libm.so
scalbf                                            /usr/lib/gcc/x86_64-linux-gnu/4.8/../../../x86_64-linux-gnu/libm.so
scalbf@@GLIBC_2.2.5                               /usr/lib/gcc/x86_64-linux-gnu/4.8/../../../x86_64-linux-gnu/libm.so
scalbf@GLIBC_2.2.5                                /usr/lib/gcc/x86_64-linux-gnu/4.8/../../../x86_64-linux-gnu/libm.so
scalbl                                            /usr/lib/gcc/x86_64-linux-gnu/4.8/../../../x86_64-linux-gnu/libm.so
scalbl@@GLIBC_2.2.5                               /usr/lib/gcc/x86_64-linux-gnu/4.8/../../../x86_64-linux-gnu/libm.so
scalbl@GLIBC_2.2.5                                /usr/lib/gcc/x86_64-linux-gnu/4.8/../../../x86_64-linux-gnu/libm.so
scalbln                                           /usr/lib/gcc/x86_64-linux-gnu/4.8/../../../x86_64-linux-gnu/libm.so
scalbln@@GLIBC_2.2.5                              /usr/lib/gcc/x86_64-linux-gnu/4.8/../../../x86_64-linux-gnu/libm.so
scalbln@GLIBC_2.2.5                               /usr/lib/gcc/x86_64-linux-gnu/4.8/../../../x86_64-linux-gnu/libm.so
scalblnf                                          /usr/lib/gcc/x86_64-linux-gnu/4.8/../../../x86_64-linux-gnu/libm.so
scalblnf@@GLIBC_2.2.5                             /usr/lib/gcc/x86_64-linux-gnu/4.8/../../../x86_64-linux-gnu/libm.so
scalblnf@GLIBC_2.2.5                              /usr/lib/gcc/x86_64-linux-gnu/4.8/../../../x86_64-linux-gnu/libm.so
scalblnl                                          /usr/lib/gcc/x86_64-linux-gnu/4.8/../../../x86_64-linux-gnu/libm.so
scalblnl@@GLIBC_2.2.5                             /usr/lib/gcc/x86_64-linux-gnu/4.8/../../../x86_64-linux-gnu/libm.so
scalblnl@GLIBC_2.2.5                              /usr/lib/gcc/x86_64-linux-gnu/4.8/../../../x86_64-linux-gnu/libm.so
scalbn                                            /usr/lib/gcc/x86_64-linux-gnu/4.8/../../../x86_64-linux-gnu/libm.so
scalbn@@GLIBC_2.2.5                               /usr/lib/gcc/x86_64-linux-gnu/4.8/../../../x86_64-linux-gnu/libm.so
                                                  /lib/x86_64-linux-gnu/libc.so.6
scalbn@GLIBC_2.2.5                                /usr/lib/gcc/x86_64-linux-gnu/4.8/../../../x86_64-linux-gnu/libm.so
scalbnf                                           /usr/lib/gcc/x86_64-linux-gnu/4.8/../../../x86_64-linux-gnu/libm.so
scalbnf@@GLIBC_2.2.5                              /usr/lib/gcc/x86_64-linux-gnu/4.8/../../../x86_64-linux-gnu/libm.so
                                                  /lib/x86_64-linux-gnu/libc.so.6
scalbnf@GLIBC_2.2.5                               /usr/lib/gcc/x86_64-linux-gnu/4.8/../../../x86_64-linux-gnu/libm.so
scalbnl                                           /usr/lib/gcc/x86_64-linux-gnu/4.8/../../../x86_64-linux-gnu/libm.so
scalbnl@@GLIBC_2.2.5                              /usr/lib/gcc/x86_64-linux-gnu/4.8/../../../x86_64-linux-gnu/libm.so
                                                  /lib/x86_64-linux-gnu/libc.so.6
scalbnl@GLIBC_2.2.5                               /usr/lib/gcc/x86_64-linux-gnu/4.8/../../../x86_64-linux-gnu/libm.so
scandir64                                         /lib/x86_64-linux-gnu/libc.so.6
scandir64@@GLIBC_2.2.5                            /lib/x86_64-linux-gnu/libc.so.6
scandir64@GLIBC_2.2.5                             /lib/x86_64-linux-gnu/libc.so.6
scandirat64                                       /lib/x86_64-linux-gnu/libc.so.6
scandirat64@@GLIBC_2.15                           /lib/x86_64-linux-gnu/libc.so.6
scandirat64@GLIBC_2.15                            /lib/x86_64-linux-gnu/libc.so.6
sched_get_priority_max                            /lib/x86_64-linux-gnu/libc.so.6
sched_get_priority_max@@GLIBC_2.2.5               /lib/x86_64-linux-gnu/libc.so.6
sched_get_priority_max@GLIBC_2.2.5                /lib/x86_64-linux-gnu/libc.so.6
                                                  /lib/x86_64-linux-gnu/libpthread.so.0
sched_get_priority_min                            /lib/x86_64-linux-gnu/libc.so.6
sched_get_priority_min@@GLIBC_2.2.5               /lib/x86_64-linux-gnu/libc.so.6
sched_get_priority_min@GLIBC_2.2.5                /lib/x86_64-linux-gnu/libc.so.6
                                                  /lib/x86_64-linux-gnu/libpthread.so.0
sched_getparam                                    /lib/x86_64-linux-gnu/libc.so.6
sched_getparam@@GLIBC_2.2.5                       /lib/x86_64-linux-gnu/libc.so.6
sched_getparam@GLIBC_2.2.5                        /lib/x86_64-linux-gnu/libc.so.6
sched_getscheduler                                /lib/x86_64-linux-gnu/libc.so.6
sched_getscheduler@@GLIBC_2.2.5                   /lib/x86_64-linux-gnu/libc.so.6
sched_getscheduler@GLIBC_2.2.5                    /lib/x86_64-linux-gnu/libc.so.6
sched_rr_get_interval                             /lib/x86_64-linux-gnu/libc.so.6
sched_rr_get_interval@@GLIBC_2.2.5                /lib/x86_64-linux-gnu/libc.so.6
sched_rr_get_interval@GLIBC_2.2.5                 /lib/x86_64-linux-gnu/libc.so.6
sched_setparam                                    /lib/x86_64-linux-gnu/libc.so.6
sched_setparam@@GLIBC_2.2.5                       /lib/x86_64-linux-gnu/libc.so.6
sched_setparam@GLIBC_2.2.5                        /lib/x86_64-linux-gnu/libc.so.6
                                                  /lib/x86_64-linux-gnu/libpthread.so.0
sched_setscheduler                                /lib/x86_64-linux-gnu/libc.so.6
sched_setscheduler@@GLIBC_2.2.5                   /lib/x86_64-linux-gnu/libc.so.6
sched_setscheduler@GLIBC_2.2.5                    /lib/x86_64-linux-gnu/libc.so.6
sched_yield                                       /lib/x86_64-linux-gnu/libc.so.6
sched_yield@@GLIBC_2.2.5                          /lib/x86_64-linux-gnu/libc.so.6
sched_yield@GLIBC_2.2.5                           /lib/x86_64-linux-gnu/libc.so.6
                                                  /lib/x86_64-linux-gnu/libpthread.so.0
secure_getenv                                     /lib/x86_64-linux-gnu/libc.so.6
secure_getenv@@GLIBC_2.17                         /lib/x86_64-linux-gnu/libc.so.6
secure_getenv@GLIBC_2.17                          /lib/x86_64-linux-gnu/libc.so.6
seed48_r                                          /lib/x86_64-linux-gnu/libc.so.6
seed48_r@@GLIBC_2.2.5                             /lib/x86_64-linux-gnu/libc.so.6
seed48_r@GLIBC_2.2.5                              /lib/x86_64-linux-gnu/libc.so.6
select                                            /lib/x86_64-linux-gnu/libc.so.6
select@@GLIBC_2.2.5                               /lib/x86_64-linux-gnu/libc.so.6
select@GLIBC_2.2.5                                /lib/x86_64-linux-gnu/libc.so.6
semctl                                            /lib/x86_64-linux-gnu/libc.so.6
semctl@@GLIBC_2.2.5                               /lib/x86_64-linux-gnu/libc.so.6
semctl@GLIBC_2.2.5                                /lib/x86_64-linux-gnu/libc.so.6
semget                                            /lib/x86_64-linux-gnu/libc.so.6
semget@@GLIBC_2.2.5                               /lib/x86_64-linux-gnu/libc.so.6
semget@GLIBC_2.2.5                                /lib/x86_64-linux-gnu/libc.so.6
semop                                             /lib/x86_64-linux-gnu/libc.so.6
semop@@GLIBC_2.2.5                                /lib/x86_64-linux-gnu/libc.so.6
semop@GLIBC_2.2.5                                 /lib/x86_64-linux-gnu/libc.so.6
send                                              /lib/x86_64-linux-gnu/libpthread.so.0
send@@GLIBC_2.2.5                                 /lib/x86_64-linux-gnu/libpthread.so.0
                                                  /lib/x86_64-linux-gnu/libc.so.6
send@GLIBC_2.2.5                                  /lib/x86_64-linux-gnu/libpthread.so.0
sendfile64                                        /lib/x86_64-linux-gnu/libc.so.6
sendfile64@@GLIBC_2.3                             /lib/x86_64-linux-gnu/libc.so.6
sendfile64@GLIBC_2.3                              /lib/x86_64-linux-gnu/libc.so.6
sendmmsg                                          /lib/x86_64-linux-gnu/libc.so.6
sendmmsg@@GLIBC_2.14                              /lib/x86_64-linux-gnu/libc.so.6
sendmmsg@GLIBC_2.14                               /lib/x86_64-linux-gnu/libc.so.6
sendmsg                                           /lib/x86_64-linux-gnu/libpthread.so.0
sendmsg@@GLIBC_2.2.5                              /lib/x86_64-linux-gnu/libpthread.so.0
                                                  /lib/x86_64-linux-gnu/libc.so.6
sendmsg@GLIBC_2.2.5                               /lib/x86_64-linux-gnu/libpthread.so.0
sendto                                            /lib/x86_64-linux-gnu/libpthread.so.0
sendto@@GLIBC_2.2.5                               /lib/x86_64-linux-gnu/libpthread.so.0
                                                  /lib/x86_64-linux-gnu/libc.so.6
sendto@GLIBC_2.2.5                                /lib/x86_64-linux-gnu/libpthread.so.0
setbuf                                            /lib/x86_64-linux-gnu/libc.so.6
                                                  /root/hpc/x86_64-native-linuxapp-gcc/lib/librte_cmdline.a(cmdline_socket.o)
setbuf@@GLIBC_2.2.5                               /lib/x86_64-linux-gnu/libc.so.6
setbuf@GLIBC_2.2.5                                /lib/x86_64-linux-gnu/libc.so.6
setbuffer                                         /lib/x86_64-linux-gnu/libc.so.6
setbuffer@@GLIBC_2.2.5                            /lib/x86_64-linux-gnu/libc.so.6
setbuffer@GLIBC_2.2.5                             /lib/x86_64-linux-gnu/libc.so.6
setcontext                                        /lib/x86_64-linux-gnu/libc.so.6
setcontext@@GLIBC_2.2.5                           /lib/x86_64-linux-gnu/libc.so.6
setcontext@GLIBC_2.2.5                            /lib/x86_64-linux-gnu/libc.so.6
setenv                                            /lib/x86_64-linux-gnu/libc.so.6
setenv@@GLIBC_2.2.5                               /lib/x86_64-linux-gnu/libc.so.6
setenv@GLIBC_2.2.5                                /lib/x86_64-linux-gnu/libc.so.6
setgid                                            /lib/x86_64-linux-gnu/libc.so.6
setgid@@GLIBC_2.2.5                               /lib/x86_64-linux-gnu/libc.so.6
setgid@GLIBC_2.2.5                                /lib/x86_64-linux-gnu/libc.so.6
setitimer                                         /lib/x86_64-linux-gnu/libc.so.6
setitimer@@GLIBC_2.2.5                            /lib/x86_64-linux-gnu/libc.so.6
setitimer@GLIBC_2.2.5                             /lib/x86_64-linux-gnu/libc.so.6
setmntent                                         /lib/x86_64-linux-gnu/libc.so.6
setmntent@@GLIBC_2.2.5                            /lib/x86_64-linux-gnu/libc.so.6
setmntent@GLIBC_2.2.5                             /lib/x86_64-linux-gnu/libc.so.6
setpgid                                           /lib/x86_64-linux-gnu/libc.so.6
setpgid@@GLIBC_2.2.5                              /lib/x86_64-linux-gnu/libc.so.6
setpgid@GLIBC_2.2.5                               /lib/x86_64-linux-gnu/libc.so.6
setregid                                          /lib/x86_64-linux-gnu/libc.so.6
setregid@@GLIBC_2.2.5                             /lib/x86_64-linux-gnu/libc.so.6
setregid@GLIBC_2.2.5                              /lib/x86_64-linux-gnu/libc.so.6
setresgid                                         /lib/x86_64-linux-gnu/libc.so.6
setresgid@@GLIBC_2.2.5                            /lib/x86_64-linux-gnu/libc.so.6
setresgid@GLIBC_2.2.5                             /lib/x86_64-linux-gnu/libc.so.6
setresuid                                         /lib/x86_64-linux-gnu/libc.so.6
setresuid@@GLIBC_2.2.5                            /lib/x86_64-linux-gnu/libc.so.6
setresuid@GLIBC_2.2.5                             /lib/x86_64-linux-gnu/libc.so.6
setreuid                                          /lib/x86_64-linux-gnu/libc.so.6
setreuid@@GLIBC_2.2.5                             /lib/x86_64-linux-gnu/libc.so.6
setreuid@GLIBC_2.2.5                              /lib/x86_64-linux-gnu/libc.so.6
setrlimit                                         /lib/x86_64-linux-gnu/libc.so.6
setrlimit64                                       /lib/x86_64-linux-gnu/libc.so.6
setrlimit64@@GLIBC_2.2.5                          /lib/x86_64-linux-gnu/libc.so.6
setrlimit64@GLIBC_2.2.5                           /lib/x86_64-linux-gnu/libc.so.6
setrlimit@@GLIBC_2.2.5                            /lib/x86_64-linux-gnu/libc.so.6
setrlimit@GLIBC_2.2.5                             /lib/x86_64-linux-gnu/libc.so.6
setsid                                            /lib/x86_64-linux-gnu/libc.so.6
setsid@@GLIBC_2.2.5                               /lib/x86_64-linux-gnu/libc.so.6
setsid@GLIBC_2.2.5                                /lib/x86_64-linux-gnu/libc.so.6
setsockopt                                        /lib/x86_64-linux-gnu/libc.so.6
setsockopt@@GLIBC_2.2.5                           /lib/x86_64-linux-gnu/libc.so.6
setsockopt@GLIBC_2.2.5                            /lib/x86_64-linux-gnu/libc.so.6
setstate                                          /lib/x86_64-linux-gnu/libc.so.6
setstate@@GLIBC_2.2.5                             /lib/x86_64-linux-gnu/libc.so.6
setstate@GLIBC_2.2.5                              /lib/x86_64-linux-gnu/libc.so.6
setstate_r                                        /lib/x86_64-linux-gnu/libc.so.6
setstate_r@@GLIBC_2.2.5                           /lib/x86_64-linux-gnu/libc.so.6
setstate_r@GLIBC_2.2.5                            /lib/x86_64-linux-gnu/libc.so.6
settimeofday                                      /lib/x86_64-linux-gnu/libc.so.6
settimeofday@@GLIBC_2.2.5                         /lib/x86_64-linux-gnu/libc.so.6
settimeofday@GLIBC_2.2.5                          /lib/x86_64-linux-gnu/libc.so.6
setuid                                            /lib/x86_64-linux-gnu/libc.so.6
setuid@@GLIBC_2.2.5                               /lib/x86_64-linux-gnu/libc.so.6
setuid@GLIBC_2.2.5                                /lib/x86_64-linux-gnu/libc.so.6
setutent                                          /lib/x86_64-linux-gnu/libc.so.6
setutent@@GLIBC_2.2.5                             /lib/x86_64-linux-gnu/libc.so.6
setutent@GLIBC_2.2.5                              /lib/x86_64-linux-gnu/libc.so.6
setvbuf                                           /lib/x86_64-linux-gnu/libc.so.6
setvbuf@@GLIBC_2.2.5                              /lib/x86_64-linux-gnu/libc.so.6
setvbuf@GLIBC_2.2.5                               /lib/x86_64-linux-gnu/libc.so.6
sgetsgent_r                                       /lib/x86_64-linux-gnu/libc.so.6
sgetsgent_r@@GLIBC_2.10                           /lib/x86_64-linux-gnu/libc.so.6
sgetsgent_r@GLIBC_2.10                            /lib/x86_64-linux-gnu/libc.so.6
sgetspent_r                                       /lib/x86_64-linux-gnu/libc.so.6
sgetspent_r@@GLIBC_2.2.5                          /lib/x86_64-linux-gnu/libc.so.6
sgetspent_r@GLIBC_2.2.5                           /lib/x86_64-linux-gnu/libc.so.6
shmat                                             /lib/x86_64-linux-gnu/libc.so.6
shmat@@GLIBC_2.2.5                                /lib/x86_64-linux-gnu/libc.so.6
shmat@GLIBC_2.2.5                                 /lib/x86_64-linux-gnu/libc.so.6
shmctl                                            /lib/x86_64-linux-gnu/libc.so.6
shmctl@@GLIBC_2.2.5                               /lib/x86_64-linux-gnu/libc.so.6
shmctl@GLIBC_2.2.5                                /lib/x86_64-linux-gnu/libc.so.6
shmdt                                             /lib/x86_64-linux-gnu/libc.so.6
shmdt@@GLIBC_2.2.5                                /lib/x86_64-linux-gnu/libc.so.6
shmdt@GLIBC_2.2.5                                 /lib/x86_64-linux-gnu/libc.so.6
shmget                                            /lib/x86_64-linux-gnu/libc.so.6
shmget@@GLIBC_2.2.5                               /lib/x86_64-linux-gnu/libc.so.6
shmget@GLIBC_2.2.5                                /lib/x86_64-linux-gnu/libc.so.6
shutdown                                          /lib/x86_64-linux-gnu/libc.so.6
shutdown@@GLIBC_2.2.5                             /lib/x86_64-linux-gnu/libc.so.6
shutdown@GLIBC_2.2.5                              /lib/x86_64-linux-gnu/libc.so.6
sigaction                                         /lib/x86_64-linux-gnu/libpthread.so.0
sigaction@@GLIBC_2.2.5                            /lib/x86_64-linux-gnu/libpthread.so.0
                                                  /lib/x86_64-linux-gnu/libc.so.6
sigaction@GLIBC_2.2.5                             /lib/x86_64-linux-gnu/libpthread.so.0
sigaltstack                                       /lib/x86_64-linux-gnu/libc.so.6
sigaltstack@@GLIBC_2.2.5                          /lib/x86_64-linux-gnu/libc.so.6
sigaltstack@GLIBC_2.2.5                           /lib/x86_64-linux-gnu/libc.so.6
sigblock                                          /lib/x86_64-linux-gnu/libc.so.6
sigblock@@GLIBC_2.2.5                             /lib/x86_64-linux-gnu/libc.so.6
sigblock@GLIBC_2.2.5                              /lib/x86_64-linux-gnu/libc.so.6
siglongjmp                                        /lib/x86_64-linux-gnu/libpthread.so.0
siglongjmp@@GLIBC_2.2.5                           /lib/x86_64-linux-gnu/libpthread.so.0
                                                  /lib/x86_64-linux-gnu/libc.so.6
siglongjmp@GLIBC_2.2.5                            /lib/x86_64-linux-gnu/libpthread.so.0
signal                                            /lib/x86_64-linux-gnu/libc.so.6
signal@@GLIBC_2.2.5                               /lib/x86_64-linux-gnu/libc.so.6
signal@GLIBC_2.2.5                                /lib/x86_64-linux-gnu/libc.so.6
significand                                       /usr/lib/gcc/x86_64-linux-gnu/4.8/../../../x86_64-linux-gnu/libm.so
significand@@GLIBC_2.2.5                          /usr/lib/gcc/x86_64-linux-gnu/4.8/../../../x86_64-linux-gnu/libm.so
significand@GLIBC_2.2.5                           /usr/lib/gcc/x86_64-linux-gnu/4.8/../../../x86_64-linux-gnu/libm.so
significandf                                      /usr/lib/gcc/x86_64-linux-gnu/4.8/../../../x86_64-linux-gnu/libm.so
significandf@@GLIBC_2.2.5                         /usr/lib/gcc/x86_64-linux-gnu/4.8/../../../x86_64-linux-gnu/libm.so
significandf@GLIBC_2.2.5                          /usr/lib/gcc/x86_64-linux-gnu/4.8/../../../x86_64-linux-gnu/libm.so
significandl                                      /usr/lib/gcc/x86_64-linux-gnu/4.8/../../../x86_64-linux-gnu/libm.so
significandl@@GLIBC_2.2.5                         /usr/lib/gcc/x86_64-linux-gnu/4.8/../../../x86_64-linux-gnu/libm.so
significandl@GLIBC_2.2.5                          /usr/lib/gcc/x86_64-linux-gnu/4.8/../../../x86_64-linux-gnu/libm.so
sigpause                                          /lib/x86_64-linux-gnu/libc.so.6
sigpause@@GLIBC_2.2.5                             /lib/x86_64-linux-gnu/libc.so.6
sigpause@GLIBC_2.2.5                              /lib/x86_64-linux-gnu/libc.so.6
sigprocmask                                       /lib/x86_64-linux-gnu/libc.so.6
sigprocmask@@GLIBC_2.2.5                          /lib/x86_64-linux-gnu/libc.so.6
sigprocmask@GLIBC_2.2.5                           /lib/x86_64-linux-gnu/libc.so.6
sigqueue                                          /lib/x86_64-linux-gnu/libc.so.6
sigqueue@@GLIBC_2.2.5                             /lib/x86_64-linux-gnu/libc.so.6
sigqueue@GLIBC_2.2.5                              /lib/x86_64-linux-gnu/libc.so.6
sigreturn                                         /lib/x86_64-linux-gnu/libc.so.6
sigreturn@@GLIBC_2.2.5                            /lib/x86_64-linux-gnu/libc.so.6
sigreturn@GLIBC_2.2.5                             /lib/x86_64-linux-gnu/libc.so.6
sigsetmask                                        /lib/x86_64-linux-gnu/libc.so.6
sigsetmask@@GLIBC_2.2.5                           /lib/x86_64-linux-gnu/libc.so.6
sigsetmask@GLIBC_2.2.5                            /lib/x86_64-linux-gnu/libc.so.6
sigsuspend                                        /lib/x86_64-linux-gnu/libc.so.6
sigsuspend@@GLIBC_2.2.5                           /lib/x86_64-linux-gnu/libc.so.6
sigsuspend@GLIBC_2.2.5                            /lib/x86_64-linux-gnu/libc.so.6
sigtimedwait                                      /lib/x86_64-linux-gnu/libc.so.6
sigtimedwait@@GLIBC_2.2.5                         /lib/x86_64-linux-gnu/libc.so.6
sigtimedwait@GLIBC_2.2.5                          /lib/x86_64-linux-gnu/libc.so.6
sigvec                                            /lib/x86_64-linux-gnu/libc.so.6
sigvec@@GLIBC_2.2.5                               /lib/x86_64-linux-gnu/libc.so.6
sigvec@GLIBC_2.2.5                                /lib/x86_64-linux-gnu/libc.so.6
sigwait                                           /lib/x86_64-linux-gnu/libpthread.so.0
sigwait@@GLIBC_2.2.5                              /lib/x86_64-linux-gnu/libpthread.so.0
                                                  /lib/x86_64-linux-gnu/libc.so.6
sigwait@GLIBC_2.2.5                               /lib/x86_64-linux-gnu/libpthread.so.0
sigwaitinfo                                       /lib/x86_64-linux-gnu/libc.so.6
sigwaitinfo@@GLIBC_2.2.5                          /lib/x86_64-linux-gnu/libc.so.6
sigwaitinfo@GLIBC_2.2.5                           /lib/x86_64-linux-gnu/libc.so.6
sin                                               /usr/lib/gcc/x86_64-linux-gnu/4.8/../../../x86_64-linux-gnu/libm.so
sin@@GLIBC_2.2.5                                  /usr/lib/gcc/x86_64-linux-gnu/4.8/../../../x86_64-linux-gnu/libm.so
sin@GLIBC_2.2.5                                   /usr/lib/gcc/x86_64-linux-gnu/4.8/../../../x86_64-linux-gnu/libm.so
sincos                                            /usr/lib/gcc/x86_64-linux-gnu/4.8/../../../x86_64-linux-gnu/libm.so
sincos@@GLIBC_2.2.5                               /usr/lib/gcc/x86_64-linux-gnu/4.8/../../../x86_64-linux-gnu/libm.so
sincos@GLIBC_2.2.5                                /usr/lib/gcc/x86_64-linux-gnu/4.8/../../../x86_64-linux-gnu/libm.so
sincosf                                           /usr/lib/gcc/x86_64-linux-gnu/4.8/../../../x86_64-linux-gnu/libm.so
sincosf@@GLIBC_2.2.5                              /usr/lib/gcc/x86_64-linux-gnu/4.8/../../../x86_64-linux-gnu/libm.so
sincosf@GLIBC_2.2.5                               /usr/lib/gcc/x86_64-linux-gnu/4.8/../../../x86_64-linux-gnu/libm.so
sincosl                                           /usr/lib/gcc/x86_64-linux-gnu/4.8/../../../x86_64-linux-gnu/libm.so
sincosl@@GLIBC_2.2.5                              /usr/lib/gcc/x86_64-linux-gnu/4.8/../../../x86_64-linux-gnu/libm.so
sincosl@GLIBC_2.2.5                               /usr/lib/gcc/x86_64-linux-gnu/4.8/../../../x86_64-linux-gnu/libm.so
sinf                                              /usr/lib/gcc/x86_64-linux-gnu/4.8/../../../x86_64-linux-gnu/libm.so
sinf@@GLIBC_2.2.5                                 /usr/lib/gcc/x86_64-linux-gnu/4.8/../../../x86_64-linux-gnu/libm.so
sinf@GLIBC_2.2.5                                  /usr/lib/gcc/x86_64-linux-gnu/4.8/../../../x86_64-linux-gnu/libm.so
sinh                                              /usr/lib/gcc/x86_64-linux-gnu/4.8/../../../x86_64-linux-gnu/libm.so
sinh@@GLIBC_2.2.5                                 /usr/lib/gcc/x86_64-linux-gnu/4.8/../../../x86_64-linux-gnu/libm.so
sinh@GLIBC_2.2.5                                  /usr/lib/gcc/x86_64-linux-gnu/4.8/../../../x86_64-linux-gnu/libm.so
sinhf                                             /usr/lib/gcc/x86_64-linux-gnu/4.8/../../../x86_64-linux-gnu/libm.so
sinhf@@GLIBC_2.2.5                                /usr/lib/gcc/x86_64-linux-gnu/4.8/../../../x86_64-linux-gnu/libm.so
sinhf@GLIBC_2.2.5                                 /usr/lib/gcc/x86_64-linux-gnu/4.8/../../../x86_64-linux-gnu/libm.so
sinhl                                             /usr/lib/gcc/x86_64-linux-gnu/4.8/../../../x86_64-linux-gnu/libm.so
sinhl@@GLIBC_2.2.5                                /usr/lib/gcc/x86_64-linux-gnu/4.8/../../../x86_64-linux-gnu/libm.so
sinhl@GLIBC_2.2.5                                 /usr/lib/gcc/x86_64-linux-gnu/4.8/../../../x86_64-linux-gnu/libm.so
sinl                                              /usr/lib/gcc/x86_64-linux-gnu/4.8/../../../x86_64-linux-gnu/libm.so
sinl@@GLIBC_2.2.5                                 /usr/lib/gcc/x86_64-linux-gnu/4.8/../../../x86_64-linux-gnu/libm.so
sinl@GLIBC_2.2.5                                  /usr/lib/gcc/x86_64-linux-gnu/4.8/../../../x86_64-linux-gnu/libm.so
sleep                                             /lib/x86_64-linux-gnu/libc.so.6
                                                  /root/hpc/x86_64-native-linuxapp-gcc/lib/librte_eal.a(eal_timer.o)
sleep@@GLIBC_2.2.5                                /lib/x86_64-linux-gnu/libc.so.6
sleep@GLIBC_2.2.5                                 /lib/x86_64-linux-gnu/libc.so.6
snprintf                                          /lib/x86_64-linux-gnu/libc.so.6
                                                  /root/hpc/x86_64-native-linuxapp-gcc/lib/librte_cfgfile.a(rte_cfgfile.o)
                                                  /root/hpc/x86_64-native-linuxapp-gcc/lib/librte_cmdline.a(cmdline_parse_portlist.o)
                                                  /root/hpc/x86_64-native-linuxapp-gcc/lib/librte_cmdline.a(cmdline_parse_string.o)
                                                  /root/hpc/x86_64-native-linuxapp-gcc/lib/librte_cmdline.a(cmdline_parse_num.o)
                                                  /root/hpc/x86_64-native-linuxapp-gcc/lib/librte_cmdline.a(cmdline_parse_ipaddr.o)
                                                  /root/hpc/x86_64-native-linuxapp-gcc/lib/librte_cmdline.a(cmdline_parse_etheraddr.o)
                                                  /root/hpc/x86_64-native-linuxapp-gcc/lib/librte_cmdline.a(cmdline_parse.o)
                                                  /root/hpc/x86_64-native-linuxapp-gcc/lib/librte_cmdline.a(cmdline.o)
                                                  /root/hpc/x86_64-native-linuxapp-gcc/lib/librte_eal.a(eal_common_devargs.o)
                                                  /root/hpc/x86_64-native-linuxapp-gcc/lib/librte_eal.a(eal_common_hexdump.o)
                                                  /root/hpc/x86_64-native-linuxapp-gcc/lib/librte_eal.a(eal_common_tailqs.o)
                                                  /root/hpc/x86_64-native-linuxapp-gcc/lib/librte_eal.a(eal_common_memzone.o)
                                                  /root/hpc/x86_64-native-linuxapp-gcc/lib/librte_ring.a(rte_ring.o)
                                                  /root/hpc/x86_64-native-linuxapp-gcc/lib/librte_mempool.a(rte_mempool.o)
                                                  parse_obj_list.o
                                                  commands.o
snprintf@@GLIBC_2.2.5                             /lib/x86_64-linux-gnu/libc.so.6
snprintf@GLIBC_2.2.5                              /lib/x86_64-linux-gnu/libc.so.6
socket                                            /lib/x86_64-linux-gnu/libc.so.6
socket@@GLIBC_2.2.5                               /lib/x86_64-linux-gnu/libc.so.6
socket@GLIBC_2.2.5                                /lib/x86_64-linux-gnu/libc.so.6
                                                  /usr/lib/gcc/x86_64-linux-gnu/4.8/../../../x86_64-linux-gnu/librt.so
socketpair                                        /lib/x86_64-linux-gnu/libc.so.6
socketpair@@GLIBC_2.2.5                           /lib/x86_64-linux-gnu/libc.so.6
socketpair@GLIBC_2.2.5                            /lib/x86_64-linux-gnu/libc.so.6
sprofil                                           /lib/x86_64-linux-gnu/libc.so.6
sprofil@@GLIBC_2.2.5                              /lib/x86_64-linux-gnu/libc.so.6
sprofil@GLIBC_2.2.5                               /lib/x86_64-linux-gnu/libc.so.6
sqrt                                              /usr/lib/gcc/x86_64-linux-gnu/4.8/../../../x86_64-linux-gnu/libm.so
sqrt@@GLIBC_2.2.5                                 /usr/lib/gcc/x86_64-linux-gnu/4.8/../../../x86_64-linux-gnu/libm.so
sqrt@GLIBC_2.2.5                                  /usr/lib/gcc/x86_64-linux-gnu/4.8/../../../x86_64-linux-gnu/libm.so
sqrtf                                             /usr/lib/gcc/x86_64-linux-gnu/4.8/../../../x86_64-linux-gnu/libm.so
sqrtf@@GLIBC_2.2.5                                /usr/lib/gcc/x86_64-linux-gnu/4.8/../../../x86_64-linux-gnu/libm.so
sqrtf@GLIBC_2.2.5                                 /usr/lib/gcc/x86_64-linux-gnu/4.8/../../../x86_64-linux-gnu/libm.so
sqrtl                                             /usr/lib/gcc/x86_64-linux-gnu/4.8/../../../x86_64-linux-gnu/libm.so
sqrtl@@GLIBC_2.2.5                                /usr/lib/gcc/x86_64-linux-gnu/4.8/../../../x86_64-linux-gnu/libm.so
sqrtl@GLIBC_2.2.5                                 /usr/lib/gcc/x86_64-linux-gnu/4.8/../../../x86_64-linux-gnu/libm.so
srand                                             /lib/x86_64-linux-gnu/libc.so.6
srand48                                           /lib/x86_64-linux-gnu/libc.so.6
                                                  /root/hpc/x86_64-native-linuxapp-gcc/lib/librte_eal.a(eal.o)
srand48@@GLIBC_2.2.5                              /lib/x86_64-linux-gnu/libc.so.6
srand48@GLIBC_2.2.5                               /lib/x86_64-linux-gnu/libc.so.6
srand48_r                                         /lib/x86_64-linux-gnu/libc.so.6
srand48_r@@GLIBC_2.2.5                            /lib/x86_64-linux-gnu/libc.so.6
srand48_r@GLIBC_2.2.5                             /lib/x86_64-linux-gnu/libc.so.6
srand@@GLIBC_2.2.5                                /lib/x86_64-linux-gnu/libc.so.6
srand@GLIBC_2.2.5                                 /lib/x86_64-linux-gnu/libc.so.6
srandom                                           /lib/x86_64-linux-gnu/libc.so.6
srandom@@GLIBC_2.2.5                              /lib/x86_64-linux-gnu/libc.so.6
srandom@GLIBC_2.2.5                               /lib/x86_64-linux-gnu/libc.so.6
srandom_r                                         /lib/x86_64-linux-gnu/libc.so.6
srandom_r@@GLIBC_2.2.5                            /lib/x86_64-linux-gnu/libc.so.6
srandom_r@GLIBC_2.2.5                             /lib/x86_64-linux-gnu/libc.so.6
ssignal                                           /lib/x86_64-linux-gnu/libc.so.6
ssignal@@GLIBC_2.2.5                              /lib/x86_64-linux-gnu/libc.so.6
ssignal@GLIBC_2.2.5                               /lib/x86_64-linux-gnu/libc.so.6
statfs                                            /lib/x86_64-linux-gnu/libc.so.6
statfs64                                          /lib/x86_64-linux-gnu/libc.so.6
statfs64@@GLIBC_2.2.5                             /lib/x86_64-linux-gnu/libc.so.6
statfs64@GLIBC_2.2.5                              /lib/x86_64-linux-gnu/libc.so.6
statfs@@GLIBC_2.2.5                               /lib/x86_64-linux-gnu/libc.so.6
statfs@GLIBC_2.2.5                                /lib/x86_64-linux-gnu/libc.so.6
statvfs64                                         /lib/x86_64-linux-gnu/libc.so.6
statvfs64@@GLIBC_2.2.5                            /lib/x86_64-linux-gnu/libc.so.6
statvfs64@GLIBC_2.2.5                             /lib/x86_64-linux-gnu/libc.so.6
stderr                                            /lib/x86_64-linux-gnu/libc.so.6
                                                  /root/hpc/x86_64-native-linuxapp-gcc/lib/librte_eal.a(eal_common_cpuflags.o)
                                                  /root/hpc/x86_64-native-linuxapp-gcc/lib/librte_eal.a(eal_common_tailqs.o)
stderr@@GLIBC_2.2.5                               /lib/x86_64-linux-gnu/libc.so.6
stderr@GLIBC_2.2.5                                /lib/x86_64-linux-gnu/libc.so.6
                                                  /usr/lib/gcc/x86_64-linux-gnu/4.8/../../../x86_64-linux-gnu/libm.so
stdin                                             /lib/x86_64-linux-gnu/libc.so.6
                                                  /root/hpc/x86_64-native-linuxapp-gcc/lib/librte_cmdline.a(cmdline_socket.o)
stdin@@GLIBC_2.2.5                                /lib/x86_64-linux-gnu/libc.so.6
stdin@GLIBC_2.2.5                                 /lib/x86_64-linux-gnu/libc.so.6
stdout                                            /lib/x86_64-linux-gnu/libc.so.6
                                                  /root/hpc/x86_64-native-linuxapp-gcc/lib/librte_eal.a(eal_log.o)
stdout@@GLIBC_2.2.5                               /lib/x86_64-linux-gnu/libc.so.6
stdout@GLIBC_2.2.5                                /lib/x86_64-linux-gnu/libc.so.6
step                                              /lib/x86_64-linux-gnu/libc.so.6
step@@GLIBC_2.2.5                                 /lib/x86_64-linux-gnu/libc.so.6
step@GLIBC_2.2.5                                  /lib/x86_64-linux-gnu/libc.so.6
stpcpy                                            /lib/x86_64-linux-gnu/libc.so.6
stpcpy@@GLIBC_2.2.5                               /lib/x86_64-linux-gnu/libc.so.6
stpcpy@GLIBC_2.2.5                                /lib/x86_64-linux-gnu/libc.so.6
stpncpy                                           /lib/x86_64-linux-gnu/libc.so.6
stpncpy@@GLIBC_2.2.5                              /lib/x86_64-linux-gnu/libc.so.6
stpncpy@GLIBC_2.2.5                               /lib/x86_64-linux-gnu/libc.so.6
strcasecmp                                        /lib/x86_64-linux-gnu/libc.so.6
strcasecmp@@GLIBC_2.2.5                           /lib/x86_64-linux-gnu/libc.so.6
strcasecmp@GLIBC_2.2.5                            /lib/x86_64-linux-gnu/libc.so.6
strcasecmp_l                                      /lib/x86_64-linux-gnu/libc.so.6
strcasecmp_l@@GLIBC_2.3                           /lib/x86_64-linux-gnu/libc.so.6
strcasecmp_l@GLIBC_2.3                            /lib/x86_64-linux-gnu/libc.so.6
strcasestr                                        /lib/x86_64-linux-gnu/libc.so.6
strcasestr@@GLIBC_2.2.5                           /lib/x86_64-linux-gnu/libc.so.6
strcasestr@GLIBC_2.2.5                            /lib/x86_64-linux-gnu/libc.so.6
strchr                                            /lib/x86_64-linux-gnu/libc.so.6
                                                  /root/hpc/x86_64-native-linuxapp-gcc/lib/librte_cmdline.a(cmdline_parse_portlist.o)
                                                  /root/hpc/x86_64-native-linuxapp-gcc/lib/librte_cmdline.a(cmdline_parse_ipaddr.o)
                                                  /root/hpc/x86_64-native-linuxapp-gcc/lib/librte_eal.a(eal_common_devargs.o)
                                                  /root/hpc/x86_64-native-linuxapp-gcc/lib/librte_eal.a(eal_memory.o)
strchr@@GLIBC_2.2.5                               /lib/x86_64-linux-gnu/libc.so.6
strchr@GLIBC_2.2.5                                /lib/x86_64-linux-gnu/libc.so.6
                                                  /usr/lib/gcc/x86_64-linux-gnu/4.8/../../../x86_64-linux-gnu/librt.so
strchrnul                                         /lib/x86_64-linux-gnu/libc.so.6
strchrnul@@GLIBC_2.2.5                            /lib/x86_64-linux-gnu/libc.so.6
strchrnul@GLIBC_2.2.5                             /lib/x86_64-linux-gnu/libc.so.6
strcmp                                            /lib/x86_64-linux-gnu/libc.so.6
                                                  /root/hpc/x86_64-native-linuxapp-gcc/lib/librte_eal.a(eal_common_options.o)
                                                  /root/hpc/x86_64-native-linuxapp-gcc/lib/librte_eal.a(eal_hugepage_info.o)
                                                  /root/hpc/x86_64-native-linuxapp-gcc/lib/librte_eal.a(eal.o)
                                                  commands.o
strcmp@@GLIBC_2.2.5                               /lib/x86_64-linux-gnu/libc.so.6
strcmp@GLIBC_2.2.5                                /lib/x86_64-linux-gnu/libc.so.6
                                                  /lib/x86_64-linux-gnu/libpthread.so.0
strcoll_l                                         /lib/x86_64-linux-gnu/libc.so.6
strcoll_l@@GLIBC_2.3                              /lib/x86_64-linux-gnu/libc.so.6
strcoll_l@GLIBC_2.3                               /lib/x86_64-linux-gnu/libc.so.6
strdup                                            /lib/x86_64-linux-gnu/libc.so.6
strdup@@GLIBC_2.2.5                               /lib/x86_64-linux-gnu/libc.so.6
strdup@GLIBC_2.2.5                                /lib/x86_64-linux-gnu/libc.so.6
strerror                                          /lib/x86_64-linux-gnu/libc.so.6
                                                  /root/hpc/x86_64-native-linuxapp-gcc/lib/librte_eal.a(eal_memory.o)
                                                  /root/hpc/x86_64-native-linuxapp-gcc/lib/librte_eal.a(eal_hugepage_info.o)
                                                  /root/hpc/x86_64-native-linuxapp-gcc/lib/librte_eal.a(eal.o)
strerror@@GLIBC_2.2.5                             /lib/x86_64-linux-gnu/libc.so.6
strerror@GLIBC_2.2.5                              /lib/x86_64-linux-gnu/libc.so.6
                                                  /usr/lib/gcc/x86_64-linux-gnu/4.8/../../../x86_64-linux-gnu/libdl.so
strerror_r                                        /lib/x86_64-linux-gnu/libc.so.6
strerror_r@@GLIBC_2.2.5                           /lib/x86_64-linux-gnu/libc.so.6
strerror_r@GLIBC_2.2.5                            /lib/x86_64-linux-gnu/libc.so.6
strfmon_l                                         /lib/x86_64-linux-gnu/libc.so.6
strfmon_l@@GLIBC_2.3                              /lib/x86_64-linux-gnu/libc.so.6
strfmon_l@GLIBC_2.3                               /lib/x86_64-linux-gnu/libc.so.6
strftime_l                                        /lib/x86_64-linux-gnu/libc.so.6
strftime_l@@GLIBC_2.3                             /lib/x86_64-linux-gnu/libc.so.6
strftime_l@GLIBC_2.3                              /lib/x86_64-linux-gnu/libc.so.6
strlen                                            /lib/x86_64-linux-gnu/libc.so.6
                                                  /root/hpc/x86_64-native-linuxapp-gcc/lib/librte_eal.a(eal_common_options.o)
                                                  /root/hpc/x86_64-native-linuxapp-gcc/lib/librte_eal.a(eal_common_dev.o)
strlen@@GLIBC_2.2.5                               /lib/x86_64-linux-gnu/libc.so.6
strlen@GLIBC_2.2.5                                /lib/x86_64-linux-gnu/libc.so.6
                                                  /lib/x86_64-linux-gnu/libpthread.so.0
                                                  /usr/lib/gcc/x86_64-linux-gnu/4.8/../../../x86_64-linux-gnu/libm.so
                                                  /usr/lib/gcc/x86_64-linux-gnu/4.8/../../../x86_64-linux-gnu/librt.so
strncasecmp                                       /lib/x86_64-linux-gnu/libc.so.6
                                                  /root/hpc/x86_64-native-linuxapp-gcc/lib/librte_eal.a(eal_common_options.o)
strncasecmp@@GLIBC_2.2.5                          /lib/x86_64-linux-gnu/libc.so.6
strncasecmp@GLIBC_2.2.5                           /lib/x86_64-linux-gnu/libc.so.6
strncasecmp_l                                     /lib/x86_64-linux-gnu/libc.so.6
strncasecmp_l@@GLIBC_2.3                          /lib/x86_64-linux-gnu/libc.so.6
strncasecmp_l@GLIBC_2.3                           /lib/x86_64-linux-gnu/libc.so.6
strncmp                                           /lib/x86_64-linux-gnu/libc.so.6
                                                  /root/hpc/x86_64-native-linuxapp-gcc/lib/librte_cfgfile.a(rte_cfgfile.o)
                                                  /root/hpc/x86_64-native-linuxapp-gcc/lib/librte_cmdline.a(cmdline_vt100.o)
                                                  /root/hpc/x86_64-native-linuxapp-gcc/lib/librte_cmdline.a(cmdline_parse_string.o)
                                                  /root/hpc/x86_64-native-linuxapp-gcc/lib/librte_cmdline.a(cmdline_parse.o)
                                                  /root/hpc/x86_64-native-linuxapp-gcc/lib/librte_eal.a(eal_common_dev.o)
                                                  /root/hpc/x86_64-native-linuxapp-gcc/lib/librte_eal.a(eal_common_tailqs.o)
                                                  /root/hpc/x86_64-native-linuxapp-gcc/lib/librte_eal.a(eal_common_memzone.o)
                                                  /root/hpc/x86_64-native-linuxapp-gcc/lib/librte_eal.a(eal_hugepage_info.o)
                                                  /root/hpc/x86_64-native-linuxapp-gcc/lib/librte_ring.a(rte_ring.o)
                                                  /root/hpc/x86_64-native-linuxapp-gcc/lib/librte_mempool.a(rte_mempool.o)
                                                  parse_obj_list.o
strncmp@@GLIBC_2.2.5                              /lib/x86_64-linux-gnu/libc.so.6
strncmp@GLIBC_2.2.5                               /lib/x86_64-linux-gnu/libc.so.6
strncpy                                           /lib/x86_64-linux-gnu/libc.so.6
                                                  /root/hpc/x86_64-native-linuxapp-gcc/lib/librte_eal.a(eal.o)
strncpy@@GLIBC_2.2.5                              /lib/x86_64-linux-gnu/libc.so.6
strncpy@GLIBC_2.2.5                               /lib/x86_64-linux-gnu/libc.so.6
strndup                                           /lib/x86_64-linux-gnu/libc.so.6
strndup@@GLIBC_2.2.5                              /lib/x86_64-linux-gnu/libc.so.6
strndup@GLIBC_2.2.5                               /lib/x86_64-linux-gnu/libc.so.6
strnlen                                           /lib/x86_64-linux-gnu/libc.so.6
                                                  /root/hpc/x86_64-native-linuxapp-gcc/lib/librte_cfgfile.a(rte_cfgfile.o)
                                                  /root/hpc/x86_64-native-linuxapp-gcc/lib/librte_cmdline.a(cmdline_vt100.o)
                                                  /root/hpc/x86_64-native-linuxapp-gcc/lib/librte_cmdline.a(cmdline_rdline.o)
                                                  /root/hpc/x86_64-native-linuxapp-gcc/lib/librte_cmdline.a(cmdline_parse.o)
                                                  /root/hpc/x86_64-native-linuxapp-gcc/lib/librte_cmdline.a(cmdline.o)
                                                  /root/hpc/x86_64-native-linuxapp-gcc/lib/librte_eal.a(eal.o)
                                                  parse_obj_list.o
strnlen@@GLIBC_2.2.5                              /lib/x86_64-linux-gnu/libc.so.6
strnlen@GLIBC_2.2.5                               /lib/x86_64-linux-gnu/libc.so.6
strptime_l                                        /lib/x86_64-linux-gnu/libc.so.6
strptime_l@@GLIBC_2.3.2                           /lib/x86_64-linux-gnu/libc.so.6
strptime_l@GLIBC_2.3.2                            /lib/x86_64-linux-gnu/libc.so.6
strrchr                                           /lib/x86_64-linux-gnu/libc.so.6
                                                  /root/hpc/x86_64-native-linuxapp-gcc/lib/librte_cmdline.a(cmdline_parse_ipaddr.o)
                                                  /root/hpc/x86_64-native-linuxapp-gcc/lib/librte_eal.a(eal.o)
strrchr@@GLIBC_2.2.5                              /lib/x86_64-linux-gnu/libc.so.6
strrchr@GLIBC_2.2.5                               /lib/x86_64-linux-gnu/libc.so.6
strsep                                            /lib/x86_64-linux-gnu/libc.so.6
strsep@@GLIBC_2.2.5                               /lib/x86_64-linux-gnu/libc.so.6
strsep@GLIBC_2.2.5                                /lib/x86_64-linux-gnu/libc.so.6
strstr                                            /lib/x86_64-linux-gnu/libc.so.6
                                                  /root/hpc/x86_64-native-linuxapp-gcc/lib/librte_eal.a(eal_timer.o)
                                                  /root/hpc/x86_64-native-linuxapp-gcc/lib/librte_eal.a(eal_memory.o)
                                                  /root/hpc/x86_64-native-linuxapp-gcc/lib/librte_eal.a(eal_hugepage_info.o)
strstr@@GLIBC_2.2.5                               /lib/x86_64-linux-gnu/libc.so.6
strstr@GLIBC_2.2.5                                /lib/x86_64-linux-gnu/libc.so.6
strtod_l                                          /lib/x86_64-linux-gnu/libc.so.6
strtod_l@@GLIBC_2.3                               /lib/x86_64-linux-gnu/libc.so.6
strtod_l@GLIBC_2.3                                /lib/x86_64-linux-gnu/libc.so.6
strtof_l                                          /lib/x86_64-linux-gnu/libc.so.6
strtof_l@@GLIBC_2.3                               /lib/x86_64-linux-gnu/libc.so.6
strtof_l@GLIBC_2.3                                /lib/x86_64-linux-gnu/libc.so.6
strtok_r                                          /lib/x86_64-linux-gnu/libc.so.6
strtok_r@@GLIBC_2.2.5                             /lib/x86_64-linux-gnu/libc.so.6
strtok_r@GLIBC_2.2.5                              /lib/x86_64-linux-gnu/libc.so.6
strtol                                            /lib/x86_64-linux-gnu/libc.so.6
                                                  /root/hpc/x86_64-native-linuxapp-gcc/lib/librte_cmdline.a(cmdline_parse_ipaddr.o)
                                                  /root/hpc/x86_64-native-linuxapp-gcc/lib/librte_eal.a(eal_common_options.o)
strtol@@GLIBC_2.2.5                               /lib/x86_64-linux-gnu/libc.so.6
strtol@GLIBC_2.2.5                                /lib/x86_64-linux-gnu/libc.so.6
strtol_l                                          /lib/x86_64-linux-gnu/libc.so.6
strtol_l@@GLIBC_2.3                               /lib/x86_64-linux-gnu/libc.so.6
strtol_l@GLIBC_2.3                                /lib/x86_64-linux-gnu/libc.so.6
strtold_l                                         /lib/x86_64-linux-gnu/libc.so.6
strtold_l@@GLIBC_2.3                              /lib/x86_64-linux-gnu/libc.so.6
strtold_l@GLIBC_2.3                               /lib/x86_64-linux-gnu/libc.so.6
strtoll                                           /lib/x86_64-linux-gnu/libc.so.6
strtoll@@GLIBC_2.2.5                              /lib/x86_64-linux-gnu/libc.so.6
strtoll@GLIBC_2.2.5                               /lib/x86_64-linux-gnu/libc.so.6
strtoll_l                                         /lib/x86_64-linux-gnu/libc.so.6
strtoll_l@@GLIBC_2.3.3                            /lib/x86_64-linux-gnu/libc.so.6
strtoll_l@GLIBC_2.3.3                             /lib/x86_64-linux-gnu/libc.so.6
strtoq                                            /lib/x86_64-linux-gnu/libc.so.6
strtoq@@GLIBC_2.2.5                               /lib/x86_64-linux-gnu/libc.so.6
strtoq@GLIBC_2.2.5                                /lib/x86_64-linux-gnu/libc.so.6
strtoul                                           /lib/x86_64-linux-gnu/libc.so.6
                                                  /root/hpc/x86_64-native-linuxapp-gcc/lib/librte_cmdline.a(cmdline_parse_portlist.o)
                                                  /root/hpc/x86_64-native-linuxapp-gcc/lib/librte_cmdline.a(cmdline_parse_etheraddr.o)
                                                  /root/hpc/x86_64-native-linuxapp-gcc/lib/librte_eal.a(eal_common_options.o)
                                                  /root/hpc/x86_64-native-linuxapp-gcc/lib/librte_eal.a(eal_common_devargs.o)
                                                  /root/hpc/x86_64-native-linuxapp-gcc/lib/librte_eal.a(eal_memory.o)
                                                  /root/hpc/x86_64-native-linuxapp-gcc/lib/librte_eal.a(eal.o)
strtoul@@GLIBC_2.2.5                              /lib/x86_64-linux-gnu/libc.so.6
strtoul@GLIBC_2.2.5                               /lib/x86_64-linux-gnu/libc.so.6
strtoul_l                                         /lib/x86_64-linux-gnu/libc.so.6
strtoul_l@@GLIBC_2.3                              /lib/x86_64-linux-gnu/libc.so.6
strtoul_l@GLIBC_2.3                               /lib/x86_64-linux-gnu/libc.so.6
strtoull                                          /lib/x86_64-linux-gnu/libc.so.6
                                                  /root/hpc/x86_64-native-linuxapp-gcc/lib/librte_eal.a(eal_memory.o)
                                                  /root/hpc/x86_64-native-linuxapp-gcc/lib/librte_eal.a(eal_hugepage_info.o)
                                                  /root/hpc/x86_64-native-linuxapp-gcc/lib/librte_eal.a(eal.o)
                                                  /root/hpc/x86_64-native-linuxapp-gcc/lib/librte_malloc.a(malloc_heap.o)
strtoull@@GLIBC_2.2.5                             /lib/x86_64-linux-gnu/libc.so.6
strtoull@GLIBC_2.2.5                              /lib/x86_64-linux-gnu/libc.so.6
strtoull_l                                        /lib/x86_64-linux-gnu/libc.so.6
strtoull_l@@GLIBC_2.3.3                           /lib/x86_64-linux-gnu/libc.so.6
strtoull_l@GLIBC_2.3.3                            /lib/x86_64-linux-gnu/libc.so.6
strtouq                                           /lib/x86_64-linux-gnu/libc.so.6
strtouq@@GLIBC_2.2.5                              /lib/x86_64-linux-gnu/libc.so.6
strtouq@GLIBC_2.2.5                               /lib/x86_64-linux-gnu/libc.so.6
strverscmp                                        /lib/x86_64-linux-gnu/libc.so.6
strverscmp@@GLIBC_2.2.5                           /lib/x86_64-linux-gnu/libc.so.6
strverscmp@GLIBC_2.2.5                            /lib/x86_64-linux-gnu/libc.so.6
strxfrm_l                                         /lib/x86_64-linux-gnu/libc.so.6
strxfrm_l@@GLIBC_2.3                              /lib/x86_64-linux-gnu/libc.so.6
strxfrm_l@GLIBC_2.3                               /lib/x86_64-linux-gnu/libc.so.6
swapcontext                                       /lib/x86_64-linux-gnu/libc.so.6
swapcontext@@GLIBC_2.2.5                          /lib/x86_64-linux-gnu/libc.so.6
swapcontext@GLIBC_2.2.5                           /lib/x86_64-linux-gnu/libc.so.6
swapoff                                           /lib/x86_64-linux-gnu/libc.so.6
swapoff@@GLIBC_2.2.5                              /lib/x86_64-linux-gnu/libc.so.6
swapoff@GLIBC_2.2.5                               /lib/x86_64-linux-gnu/libc.so.6
swapon                                            /lib/x86_64-linux-gnu/libc.so.6
swapon@@GLIBC_2.2.5                               /lib/x86_64-linux-gnu/libc.so.6
swapon@GLIBC_2.2.5                                /lib/x86_64-linux-gnu/libc.so.6
symlink                                           /lib/x86_64-linux-gnu/libc.so.6
symlink@@GLIBC_2.2.5                              /lib/x86_64-linux-gnu/libc.so.6
symlink@GLIBC_2.2.5                               /lib/x86_64-linux-gnu/libc.so.6
syscall                                           /lib/x86_64-linux-gnu/libc.so.6
                                                  /root/hpc/x86_64-native-linuxapp-gcc/lib/librte_eal.a(eal_thread.o)
syscall@@GLIBC_2.2.5                              /lib/x86_64-linux-gnu/libc.so.6
syscall@GLIBC_2.2.5                               /lib/x86_64-linux-gnu/libc.so.6
sysconf                                           /lib/x86_64-linux-gnu/libc.so.6
                                                  /root/hpc/x86_64-native-linuxapp-gcc/lib/librte_eal.a(eal.o)
sysconf@@GLIBC_2.2.5                              /lib/x86_64-linux-gnu/libc.so.6
sysconf@GLIBC_2.2.5                               /lib/x86_64-linux-gnu/libc.so.6
sysctl                                            /lib/x86_64-linux-gnu/libc.so.6
sysctl@@GLIBC_2.2.5                               /lib/x86_64-linux-gnu/libc.so.6
sysctl@GLIBC_2.2.5                                /lib/x86_64-linux-gnu/libc.so.6
sysv_signal                                       /lib/x86_64-linux-gnu/libc.so.6
sysv_signal@@GLIBC_2.2.5                          /lib/x86_64-linux-gnu/libc.so.6
sysv_signal@GLIBC_2.2.5                           /lib/x86_64-linux-gnu/libc.so.6
tailqinitfn_rte_mempool_tailq                     /root/hpc/x86_64-native-linuxapp-gcc/lib/librte_mempool.a(rte_mempool.o)
tailqinitfn_rte_ring_tailq                        /root/hpc/x86_64-native-linuxapp-gcc/lib/librte_ring.a(rte_ring.o)
tanf                                              /usr/lib/gcc/x86_64-linux-gnu/4.8/../../../x86_64-linux-gnu/libm.so
tanf@@GLIBC_2.2.5                                 /usr/lib/gcc/x86_64-linux-gnu/4.8/../../../x86_64-linux-gnu/libm.so
tanf@GLIBC_2.2.5                                  /usr/lib/gcc/x86_64-linux-gnu/4.8/../../../x86_64-linux-gnu/libm.so
tanh                                              /usr/lib/gcc/x86_64-linux-gnu/4.8/../../../x86_64-linux-gnu/libm.so
tanh@@GLIBC_2.2.5                                 /usr/lib/gcc/x86_64-linux-gnu/4.8/../../../x86_64-linux-gnu/libm.so
tanh@GLIBC_2.2.5                                  /usr/lib/gcc/x86_64-linux-gnu/4.8/../../../x86_64-linux-gnu/libm.so
tanhf                                             /usr/lib/gcc/x86_64-linux-gnu/4.8/../../../x86_64-linux-gnu/libm.so
tanhf@@GLIBC_2.2.5                                /usr/lib/gcc/x86_64-linux-gnu/4.8/../../../x86_64-linux-gnu/libm.so
tanhf@GLIBC_2.2.5                                 /usr/lib/gcc/x86_64-linux-gnu/4.8/../../../x86_64-linux-gnu/libm.so
tanhl                                             /usr/lib/gcc/x86_64-linux-gnu/4.8/../../../x86_64-linux-gnu/libm.so
tanhl@@GLIBC_2.2.5                                /usr/lib/gcc/x86_64-linux-gnu/4.8/../../../x86_64-linux-gnu/libm.so
tanhl@GLIBC_2.2.5                                 /usr/lib/gcc/x86_64-linux-gnu/4.8/../../../x86_64-linux-gnu/libm.so
tanl                                              /usr/lib/gcc/x86_64-linux-gnu/4.8/../../../x86_64-linux-gnu/libm.so
tanl@@GLIBC_2.2.5                                 /usr/lib/gcc/x86_64-linux-gnu/4.8/../../../x86_64-linux-gnu/libm.so
tanl@GLIBC_2.2.5                                  /usr/lib/gcc/x86_64-linux-gnu/4.8/../../../x86_64-linux-gnu/libm.so
tcdrain                                           /lib/x86_64-linux-gnu/libpthread.so.0
tcdrain@@GLIBC_2.2.5                              /lib/x86_64-linux-gnu/libpthread.so.0
                                                  /lib/x86_64-linux-gnu/libc.so.6
tcdrain@GLIBC_2.2.5                               /lib/x86_64-linux-gnu/libpthread.so.0
tcgetattr                                         /lib/x86_64-linux-gnu/libc.so.6
                                                  /root/hpc/x86_64-native-linuxapp-gcc/lib/librte_cmdline.a(cmdline_socket.o)
tcgetattr@@GLIBC_2.2.5                            /lib/x86_64-linux-gnu/libc.so.6
tcgetattr@GLIBC_2.2.5                             /lib/x86_64-linux-gnu/libc.so.6
tcsetattr                                         /lib/x86_64-linux-gnu/libc.so.6
                                                  /root/hpc/x86_64-native-linuxapp-gcc/lib/librte_cmdline.a(cmdline_socket.o)
tcsetattr@@GLIBC_2.2.5                            /lib/x86_64-linux-gnu/libc.so.6
tcsetattr@GLIBC_2.2.5                             /lib/x86_64-linux-gnu/libc.so.6
tdelete                                           /lib/x86_64-linux-gnu/libc.so.6
tdelete@@GLIBC_2.2.5                              /lib/x86_64-linux-gnu/libc.so.6
tdelete@GLIBC_2.2.5                               /lib/x86_64-linux-gnu/libc.so.6
                                                  /lib/x86_64-linux-gnu/libpthread.so.0
tdestroy                                          /lib/x86_64-linux-gnu/libc.so.6
tdestroy@@GLIBC_2.2.5                             /lib/x86_64-linux-gnu/libc.so.6
tdestroy@GLIBC_2.2.5                              /lib/x86_64-linux-gnu/libc.so.6
textdomain                                        /lib/x86_64-linux-gnu/libc.so.6
textdomain@@GLIBC_2.2.5                           /lib/x86_64-linux-gnu/libc.so.6
textdomain@GLIBC_2.2.5                            /lib/x86_64-linux-gnu/libc.so.6
tfind                                             /lib/x86_64-linux-gnu/libc.so.6
tfind@@GLIBC_2.2.5                                /lib/x86_64-linux-gnu/libc.so.6
tfind@GLIBC_2.2.5                                 /lib/x86_64-linux-gnu/libc.so.6
                                                  /lib/x86_64-linux-gnu/libpthread.so.0
tgamma                                            /usr/lib/gcc/x86_64-linux-gnu/4.8/../../../x86_64-linux-gnu/libm.so
tgamma@@GLIBC_2.2.5                               /usr/lib/gcc/x86_64-linux-gnu/4.8/../../../x86_64-linux-gnu/libm.so
tgamma@GLIBC_2.2.5                                /usr/lib/gcc/x86_64-linux-gnu/4.8/../../../x86_64-linux-gnu/libm.so
tgammaf                                           /usr/lib/gcc/x86_64-linux-gnu/4.8/../../../x86_64-linux-gnu/libm.so
tgammaf@@GLIBC_2.2.5                              /usr/lib/gcc/x86_64-linux-gnu/4.8/../../../x86_64-linux-gnu/libm.so
tgammaf@GLIBC_2.2.5                               /usr/lib/gcc/x86_64-linux-gnu/4.8/../../../x86_64-linux-gnu/libm.so
tgammal                                           /usr/lib/gcc/x86_64-linux-gnu/4.8/../../../x86_64-linux-gnu/libm.so
tgammal@@GLIBC_2.2.5                              /usr/lib/gcc/x86_64-linux-gnu/4.8/../../../x86_64-linux-gnu/libm.so
tgammal@GLIBC_2.2.5                               /usr/lib/gcc/x86_64-linux-gnu/4.8/../../../x86_64-linux-gnu/libm.so
timelocal                                         /lib/x86_64-linux-gnu/libc.so.6
timelocal@@GLIBC_2.2.5                            /lib/x86_64-linux-gnu/libc.so.6
timelocal@GLIBC_2.2.5                             /lib/x86_64-linux-gnu/libc.so.6
times                                             /lib/x86_64-linux-gnu/libc.so.6
times@@GLIBC_2.2.5                                /lib/x86_64-linux-gnu/libc.so.6
times@GLIBC_2.2.5                                 /lib/x86_64-linux-gnu/libc.so.6
timezone                                          /lib/x86_64-linux-gnu/libc.so.6
timezone@@GLIBC_2.2.5                             /lib/x86_64-linux-gnu/libc.so.6
timezone@GLIBC_2.2.5                              /lib/x86_64-linux-gnu/libc.so.6
tmpfile64                                         /lib/x86_64-linux-gnu/libc.so.6
tmpfile64@@GLIBC_2.2.5                            /lib/x86_64-linux-gnu/libc.so.6
tmpfile64@GLIBC_2.2.5                             /lib/x86_64-linux-gnu/libc.so.6
token_obj_list_ops                                parse_obj_list.o
                                                  commands.o
tolower_l                                         /lib/x86_64-linux-gnu/libc.so.6
tolower_l@@GLIBC_2.3                              /lib/x86_64-linux-gnu/libc.so.6
tolower_l@GLIBC_2.3                               /lib/x86_64-linux-gnu/libc.so.6
toupper_l                                         /lib/x86_64-linux-gnu/libc.so.6
toupper_l@@GLIBC_2.3                              /lib/x86_64-linux-gnu/libc.so.6
toupper_l@GLIBC_2.3                               /lib/x86_64-linux-gnu/libc.so.6
towctrans                                         /lib/x86_64-linux-gnu/libc.so.6
towctrans@@GLIBC_2.2.5                            /lib/x86_64-linux-gnu/libc.so.6
towctrans@GLIBC_2.2.5                             /lib/x86_64-linux-gnu/libc.so.6
towctrans_l                                       /lib/x86_64-linux-gnu/libc.so.6
towctrans_l@@GLIBC_2.3                            /lib/x86_64-linux-gnu/libc.so.6
towctrans_l@GLIBC_2.3                             /lib/x86_64-linux-gnu/libc.so.6
towlower_l                                        /lib/x86_64-linux-gnu/libc.so.6
towlower_l@@GLIBC_2.3                             /lib/x86_64-linux-gnu/libc.so.6
towlower_l@GLIBC_2.3                              /lib/x86_64-linux-gnu/libc.so.6
towupper_l                                        /lib/x86_64-linux-gnu/libc.so.6
towupper_l@@GLIBC_2.3                             /lib/x86_64-linux-gnu/libc.so.6
towupper_l@GLIBC_2.3                              /lib/x86_64-linux-gnu/libc.so.6
trunc                                             /usr/lib/gcc/x86_64-linux-gnu/4.8/../../../x86_64-linux-gnu/libm.so
trunc@@GLIBC_2.2.5                                /usr/lib/gcc/x86_64-linux-gnu/4.8/../../../x86_64-linux-gnu/libm.so
trunc@GLIBC_2.2.5                                 /usr/lib/gcc/x86_64-linux-gnu/4.8/../../../x86_64-linux-gnu/libm.so
truncate64                                        /lib/x86_64-linux-gnu/libc.so.6
truncate64@@GLIBC_2.2.5                           /lib/x86_64-linux-gnu/libc.so.6
truncate64@GLIBC_2.2.5                            /lib/x86_64-linux-gnu/libc.so.6
truncf                                            /usr/lib/gcc/x86_64-linux-gnu/4.8/../../../x86_64-linux-gnu/libm.so
truncf@@GLIBC_2.2.5                               /usr/lib/gcc/x86_64-linux-gnu/4.8/../../../x86_64-linux-gnu/libm.so
truncf@GLIBC_2.2.5                                /usr/lib/gcc/x86_64-linux-gnu/4.8/../../../x86_64-linux-gnu/libm.so
truncl                                            /usr/lib/gcc/x86_64-linux-gnu/4.8/../../../x86_64-linux-gnu/libm.so
truncl@@GLIBC_2.2.5                               /usr/lib/gcc/x86_64-linux-gnu/4.8/../../../x86_64-linux-gnu/libm.so
truncl@GLIBC_2.2.5                                /usr/lib/gcc/x86_64-linux-gnu/4.8/../../../x86_64-linux-gnu/libm.so
tsearch                                           /lib/x86_64-linux-gnu/libc.so.6
tsearch@@GLIBC_2.2.5                              /lib/x86_64-linux-gnu/libc.so.6
tsearch@GLIBC_2.2.5                               /lib/x86_64-linux-gnu/libc.so.6
                                                  /lib/x86_64-linux-gnu/libpthread.so.0
ttyname_r                                         /lib/x86_64-linux-gnu/libc.so.6
ttyname_r@@GLIBC_2.2.5                            /lib/x86_64-linux-gnu/libc.so.6
ttyname_r@GLIBC_2.2.5                             /lib/x86_64-linux-gnu/libc.so.6
twalk                                             /lib/x86_64-linux-gnu/libc.so.6
twalk@@GLIBC_2.2.5                                /lib/x86_64-linux-gnu/libc.so.6
twalk@GLIBC_2.2.5                                 /lib/x86_64-linux-gnu/libc.so.6
                                                  /lib/x86_64-linux-gnu/libpthread.so.0
tzname                                            /lib/x86_64-linux-gnu/libc.so.6
tzname@@GLIBC_2.2.5                               /lib/x86_64-linux-gnu/libc.so.6
tzname@GLIBC_2.2.5                                /lib/x86_64-linux-gnu/libc.so.6
tzset                                             /lib/x86_64-linux-gnu/libc.so.6
tzset@@GLIBC_2.2.5                                /lib/x86_64-linux-gnu/libc.so.6
tzset@GLIBC_2.2.5                                 /lib/x86_64-linux-gnu/libc.so.6
ulckpwdf                                          /lib/x86_64-linux-gnu/libc.so.6
ulckpwdf@@GLIBC_2.2.5                             /lib/x86_64-linux-gnu/libc.so.6
ulckpwdf@GLIBC_2.2.5                              /lib/x86_64-linux-gnu/libc.so.6
ulimit                                            /lib/x86_64-linux-gnu/libc.so.6
ulimit@@GLIBC_2.2.5                               /lib/x86_64-linux-gnu/libc.so.6
ulimit@GLIBC_2.2.5                                /lib/x86_64-linux-gnu/libc.so.6
umask                                             /lib/x86_64-linux-gnu/libc.so.6
umask@@GLIBC_2.2.5                                /lib/x86_64-linux-gnu/libc.so.6
umask@GLIBC_2.2.5                                 /lib/x86_64-linux-gnu/libc.so.6
umount                                            /lib/x86_64-linux-gnu/libc.so.6
umount2                                           /lib/x86_64-linux-gnu/libc.so.6
umount2@@GLIBC_2.2.5                              /lib/x86_64-linux-gnu/libc.so.6
umount2@GLIBC_2.2.5                               /lib/x86_64-linux-gnu/libc.so.6
umount@@GLIBC_2.2.5                               /lib/x86_64-linux-gnu/libc.so.6
umount@GLIBC_2.2.5                                /lib/x86_64-linux-gnu/libc.so.6
uname                                             /lib/x86_64-linux-gnu/libc.so.6
uname@@GLIBC_2.2.5                                /lib/x86_64-linux-gnu/libc.so.6
uname@GLIBC_2.2.5                                 /lib/x86_64-linux-gnu/libc.so.6
ungetc                                            /lib/x86_64-linux-gnu/libc.so.6
ungetc@@GLIBC_2.2.5                               /lib/x86_64-linux-gnu/libc.so.6
ungetc@GLIBC_2.2.5                                /lib/x86_64-linux-gnu/libc.so.6
unlink                                            /lib/x86_64-linux-gnu/libc.so.6
                                                  /root/hpc/x86_64-native-linuxapp-gcc/lib/librte_eal.a(eal_memory.o)
unlink@@GLIBC_2.2.5                               /lib/x86_64-linux-gnu/libc.so.6
unlink@GLIBC_2.2.5                                /lib/x86_64-linux-gnu/libc.so.6
                                                  /lib/x86_64-linux-gnu/libpthread.so.0
                                                  /usr/lib/gcc/x86_64-linux-gnu/4.8/../../../x86_64-linux-gnu/librt.so
unlinkat                                          /lib/x86_64-linux-gnu/libc.so.6
                                                  /root/hpc/x86_64-native-linuxapp-gcc/lib/librte_eal.a(eal_hugepage_info.o)
unlinkat@@GLIBC_2.4                               /lib/x86_64-linux-gnu/libc.so.6
unlinkat@GLIBC_2.4                                /lib/x86_64-linux-gnu/libc.so.6
unsetenv                                          /lib/x86_64-linux-gnu/libc.so.6
unsetenv@@GLIBC_2.2.5                             /lib/x86_64-linux-gnu/libc.so.6
unsetenv@GLIBC_2.2.5                              /lib/x86_64-linux-gnu/libc.so.6
updwtmp                                           /lib/x86_64-linux-gnu/libc.so.6
updwtmp@@GLIBC_2.2.5                              /lib/x86_64-linux-gnu/libc.so.6
updwtmp@GLIBC_2.2.5                               /lib/x86_64-linux-gnu/libc.so.6
uselocale                                         /lib/x86_64-linux-gnu/libc.so.6
uselocale@@GLIBC_2.3                              /lib/x86_64-linux-gnu/libc.so.6
uselocale@GLIBC_2.3                               /lib/x86_64-linux-gnu/libc.so.6
utimes                                            /lib/x86_64-linux-gnu/libc.so.6
utimes@@GLIBC_2.2.5                               /lib/x86_64-linux-gnu/libc.so.6
utimes@GLIBC_2.2.5                                /lib/x86_64-linux-gnu/libc.so.6
utmpname                                          /lib/x86_64-linux-gnu/libc.so.6
utmpname@@GLIBC_2.2.5                             /lib/x86_64-linux-gnu/libc.so.6
utmpname@GLIBC_2.2.5                              /lib/x86_64-linux-gnu/libc.so.6
valloc                                            /lib/x86_64-linux-gnu/libc.so.6
valloc@@GLIBC_2.2.5                               /lib/x86_64-linux-gnu/libc.so.6
valloc@GLIBC_2.2.5                                /lib/x86_64-linux-gnu/libc.so.6
vasprintf                                         /lib/x86_64-linux-gnu/libc.so.6
vasprintf@@GLIBC_2.2.5                            /lib/x86_64-linux-gnu/libc.so.6
vasprintf@GLIBC_2.2.5                             /lib/x86_64-linux-gnu/libc.so.6
vdprintf                                          /lib/x86_64-linux-gnu/libc.so.6
vdprintf@@GLIBC_2.2.5                             /lib/x86_64-linux-gnu/libc.so.6
vdprintf@GLIBC_2.2.5                              /lib/x86_64-linux-gnu/libc.so.6
versionsort64                                     /lib/x86_64-linux-gnu/libc.so.6
versionsort64@@GLIBC_2.2.5                        /lib/x86_64-linux-gnu/libc.so.6
versionsort64@GLIBC_2.2.5                         /lib/x86_64-linux-gnu/libc.so.6
vfork                                             /lib/x86_64-linux-gnu/libpthread.so.0
vfork@@GLIBC_2.2.5                                /lib/x86_64-linux-gnu/libpthread.so.0
                                                  /lib/x86_64-linux-gnu/libc.so.6
vfork@GLIBC_2.2.5                                 /lib/x86_64-linux-gnu/libpthread.so.0
vfscanf                                           /lib/x86_64-linux-gnu/libc.so.6
vfscanf@@GLIBC_2.2.5                              /lib/x86_64-linux-gnu/libc.so.6
vfscanf@GLIBC_2.2.5                               /lib/x86_64-linux-gnu/libc.so.6
vfwprintf                                         /lib/x86_64-linux-gnu/libc.so.6
vfwprintf@@GLIBC_2.2.5                            /lib/x86_64-linux-gnu/libc.so.6
vfwprintf@GLIBC_2.2.5                             /lib/x86_64-linux-gnu/libc.so.6
vfwscanf                                          /lib/x86_64-linux-gnu/libc.so.6
vfwscanf@@GLIBC_2.2.5                             /lib/x86_64-linux-gnu/libc.so.6
vfwscanf@GLIBC_2.2.5                              /lib/x86_64-linux-gnu/libc.so.6
vscanf                                            /lib/x86_64-linux-gnu/libc.so.6
vscanf@@GLIBC_2.2.5                               /lib/x86_64-linux-gnu/libc.so.6
vscanf@GLIBC_2.2.5                                /lib/x86_64-linux-gnu/libc.so.6
vsnprintf                                         /lib/x86_64-linux-gnu/libc.so.6
vsnprintf@@GLIBC_2.2.5                            /lib/x86_64-linux-gnu/libc.so.6
vsnprintf@GLIBC_2.2.5                             /lib/x86_64-linux-gnu/libc.so.6
vsprintf                                          /lib/x86_64-linux-gnu/libc.so.6
vsprintf@@GLIBC_2.2.5                             /lib/x86_64-linux-gnu/libc.so.6
vsprintf@GLIBC_2.2.5                              /lib/x86_64-linux-gnu/libc.so.6
vsscanf                                           /lib/x86_64-linux-gnu/libc.so.6
vsscanf@@GLIBC_2.2.5                              /lib/x86_64-linux-gnu/libc.so.6
vsscanf@GLIBC_2.2.5                               /lib/x86_64-linux-gnu/libc.so.6
vswprintf                                         /lib/x86_64-linux-gnu/libc.so.6
vswprintf@@GLIBC_2.2.5                            /lib/x86_64-linux-gnu/libc.so.6
vswprintf@GLIBC_2.2.5                             /lib/x86_64-linux-gnu/libc.so.6
vt100_init                                        /root/hpc/x86_64-native-linuxapp-gcc/lib/librte_cmdline.a(cmdline_vt100.o)
                                                  /root/hpc/x86_64-native-linuxapp-gcc/lib/librte_cmdline.a(cmdline_rdline.o)
vt100_parser                                      /root/hpc/x86_64-native-linuxapp-gcc/lib/librte_cmdline.a(cmdline_vt100.o)
                                                  /root/hpc/x86_64-native-linuxapp-gcc/lib/librte_cmdline.a(cmdline_rdline.o)
wait                                              /lib/x86_64-linux-gnu/libpthread.so.0
wait3                                             /lib/x86_64-linux-gnu/libc.so.6
wait3@@GLIBC_2.2.5                                /lib/x86_64-linux-gnu/libc.so.6
wait3@GLIBC_2.2.5                                 /lib/x86_64-linux-gnu/libc.so.6
wait4                                             /lib/x86_64-linux-gnu/libc.so.6
wait4@@GLIBC_2.2.5                                /lib/x86_64-linux-gnu/libc.so.6
wait4@GLIBC_2.2.5                                 /lib/x86_64-linux-gnu/libc.so.6
wait@@GLIBC_2.2.5                                 /lib/x86_64-linux-gnu/libpthread.so.0
                                                  /lib/x86_64-linux-gnu/libc.so.6
wait@GLIBC_2.2.5                                  /lib/x86_64-linux-gnu/libpthread.so.0
waitid                                            /lib/x86_64-linux-gnu/libc.so.6
waitid@@GLIBC_2.2.5                               /lib/x86_64-linux-gnu/libc.so.6
waitid@GLIBC_2.2.5                                /lib/x86_64-linux-gnu/libc.so.6
waitpid                                           /lib/x86_64-linux-gnu/libpthread.so.0
waitpid@@GLIBC_2.2.5                              /lib/x86_64-linux-gnu/libpthread.so.0
                                                  /lib/x86_64-linux-gnu/libc.so.6
waitpid@GLIBC_2.2.5                               /lib/x86_64-linux-gnu/libpthread.so.0
wcpcpy                                            /lib/x86_64-linux-gnu/libc.so.6
wcpcpy@@GLIBC_2.2.5                               /lib/x86_64-linux-gnu/libc.so.6
wcpcpy@GLIBC_2.2.5                                /lib/x86_64-linux-gnu/libc.so.6
wcpncpy                                           /lib/x86_64-linux-gnu/libc.so.6
wcpncpy@@GLIBC_2.2.5                              /lib/x86_64-linux-gnu/libc.so.6
wcpncpy@GLIBC_2.2.5                               /lib/x86_64-linux-gnu/libc.so.6
wcrtomb                                           /lib/x86_64-linux-gnu/libc.so.6
wcrtomb@@GLIBC_2.2.5                              /lib/x86_64-linux-gnu/libc.so.6
wcrtomb@GLIBC_2.2.5                               /lib/x86_64-linux-gnu/libc.so.6
wcscasecmp                                        /lib/x86_64-linux-gnu/libc.so.6
wcscasecmp@@GLIBC_2.2.5                           /lib/x86_64-linux-gnu/libc.so.6
wcscasecmp@GLIBC_2.2.5                            /lib/x86_64-linux-gnu/libc.so.6
wcscasecmp_l                                      /lib/x86_64-linux-gnu/libc.so.6
wcscasecmp_l@@GLIBC_2.3                           /lib/x86_64-linux-gnu/libc.so.6
wcscasecmp_l@GLIBC_2.3                            /lib/x86_64-linux-gnu/libc.so.6
wcscat                                            /lib/x86_64-linux-gnu/libc.so.6
wcscat@@GLIBC_2.2.5                               /lib/x86_64-linux-gnu/libc.so.6
wcscat@GLIBC_2.2.5                                /lib/x86_64-linux-gnu/libc.so.6
wcschrnul                                         /lib/x86_64-linux-gnu/libc.so.6
wcschrnul@@GLIBC_2.2.5                            /lib/x86_64-linux-gnu/libc.so.6
wcschrnul@GLIBC_2.2.5                             /lib/x86_64-linux-gnu/libc.so.6
wcscoll                                           /lib/x86_64-linux-gnu/libc.so.6
wcscoll@@GLIBC_2.2.5                              /lib/x86_64-linux-gnu/libc.so.6
wcscoll@GLIBC_2.2.5                               /lib/x86_64-linux-gnu/libc.so.6
wcscoll_l                                         /lib/x86_64-linux-gnu/libc.so.6
wcscoll_l@@GLIBC_2.3                              /lib/x86_64-linux-gnu/libc.so.6
wcscoll_l@GLIBC_2.3                               /lib/x86_64-linux-gnu/libc.so.6
wcsftime_l                                        /lib/x86_64-linux-gnu/libc.so.6
wcsftime_l@@GLIBC_2.3                             /lib/x86_64-linux-gnu/libc.so.6
wcsftime_l@GLIBC_2.3                              /lib/x86_64-linux-gnu/libc.so.6
wcslen                                            /lib/x86_64-linux-gnu/libc.so.6
wcslen@@GLIBC_2.2.5                               /lib/x86_64-linux-gnu/libc.so.6
wcslen@GLIBC_2.2.5                                /lib/x86_64-linux-gnu/libc.so.6
wcsncasecmp                                       /lib/x86_64-linux-gnu/libc.so.6
wcsncasecmp@@GLIBC_2.2.5                          /lib/x86_64-linux-gnu/libc.so.6
wcsncasecmp@GLIBC_2.2.5                           /lib/x86_64-linux-gnu/libc.so.6
wcsncasecmp_l                                     /lib/x86_64-linux-gnu/libc.so.6
wcsncasecmp_l@@GLIBC_2.3                          /lib/x86_64-linux-gnu/libc.so.6
wcsncasecmp_l@GLIBC_2.3                           /lib/x86_64-linux-gnu/libc.so.6
wcsncpy                                           /lib/x86_64-linux-gnu/libc.so.6
wcsncpy@@GLIBC_2.2.5                              /lib/x86_64-linux-gnu/libc.so.6
wcsncpy@GLIBC_2.2.5                               /lib/x86_64-linux-gnu/libc.so.6
wcsnlen                                           /lib/x86_64-linux-gnu/libc.so.6
wcsnlen@@GLIBC_2.2.5                              /lib/x86_64-linux-gnu/libc.so.6
wcsnlen@GLIBC_2.2.5                               /lib/x86_64-linux-gnu/libc.so.6
wcsnrtombs                                        /lib/x86_64-linux-gnu/libc.so.6
wcsnrtombs@@GLIBC_2.2.5                           /lib/x86_64-linux-gnu/libc.so.6
wcsnrtombs@GLIBC_2.2.5                            /lib/x86_64-linux-gnu/libc.so.6
wcsrtombs                                         /lib/x86_64-linux-gnu/libc.so.6
wcsrtombs@@GLIBC_2.2.5                            /lib/x86_64-linux-gnu/libc.so.6
wcsrtombs@GLIBC_2.2.5                             /lib/x86_64-linux-gnu/libc.so.6
wcstod_l                                          /lib/x86_64-linux-gnu/libc.so.6
wcstod_l@@GLIBC_2.3                               /lib/x86_64-linux-gnu/libc.so.6
wcstod_l@GLIBC_2.3                                /lib/x86_64-linux-gnu/libc.so.6
wcstof_l                                          /lib/x86_64-linux-gnu/libc.so.6
wcstof_l@@GLIBC_2.3                               /lib/x86_64-linux-gnu/libc.so.6
wcstof_l@GLIBC_2.3                                /lib/x86_64-linux-gnu/libc.so.6
wcstol_l                                          /lib/x86_64-linux-gnu/libc.so.6
wcstol_l@@GLIBC_2.3                               /lib/x86_64-linux-gnu/libc.so.6
wcstol_l@GLIBC_2.3                                /lib/x86_64-linux-gnu/libc.so.6
wcstold_l                                         /lib/x86_64-linux-gnu/libc.so.6
wcstold_l@@GLIBC_2.3                              /lib/x86_64-linux-gnu/libc.so.6
wcstold_l@GLIBC_2.3                               /lib/x86_64-linux-gnu/libc.so.6
wcstoll                                           /lib/x86_64-linux-gnu/libc.so.6
wcstoll@@GLIBC_2.2.5                              /lib/x86_64-linux-gnu/libc.so.6
wcstoll@GLIBC_2.2.5                               /lib/x86_64-linux-gnu/libc.so.6
wcstoll_l                                         /lib/x86_64-linux-gnu/libc.so.6
wcstoll_l@@GLIBC_2.3                              /lib/x86_64-linux-gnu/libc.so.6
wcstoll_l@GLIBC_2.3                               /lib/x86_64-linux-gnu/libc.so.6
wcstoq                                            /lib/x86_64-linux-gnu/libc.so.6
wcstoq@@GLIBC_2.2.5                               /lib/x86_64-linux-gnu/libc.so.6
wcstoq@GLIBC_2.2.5                                /lib/x86_64-linux-gnu/libc.so.6
wcstoul_l                                         /lib/x86_64-linux-gnu/libc.so.6
wcstoul_l@@GLIBC_2.3                              /lib/x86_64-linux-gnu/libc.so.6
wcstoul_l@GLIBC_2.3                               /lib/x86_64-linux-gnu/libc.so.6
wcstoull                                          /lib/x86_64-linux-gnu/libc.so.6
wcstoull@@GLIBC_2.2.5                             /lib/x86_64-linux-gnu/libc.so.6
wcstoull@GLIBC_2.2.5                              /lib/x86_64-linux-gnu/libc.so.6
wcstoull_l                                        /lib/x86_64-linux-gnu/libc.so.6
wcstoull_l@@GLIBC_2.3                             /lib/x86_64-linux-gnu/libc.so.6
wcstoull_l@GLIBC_2.3                              /lib/x86_64-linux-gnu/libc.so.6
wcstouq                                           /lib/x86_64-linux-gnu/libc.so.6
wcstouq@@GLIBC_2.2.5                              /lib/x86_64-linux-gnu/libc.so.6
wcstouq@GLIBC_2.2.5                               /lib/x86_64-linux-gnu/libc.so.6
wcswcs                                            /lib/x86_64-linux-gnu/libc.so.6
wcswcs@@GLIBC_2.2.5                               /lib/x86_64-linux-gnu/libc.so.6
wcswcs@GLIBC_2.2.5                                /lib/x86_64-linux-gnu/libc.so.6
wcsxfrm_l                                         /lib/x86_64-linux-gnu/libc.so.6
wcsxfrm_l@@GLIBC_2.3                              /lib/x86_64-linux-gnu/libc.so.6
wcsxfrm_l@GLIBC_2.3                               /lib/x86_64-linux-gnu/libc.so.6
wctrans                                           /lib/x86_64-linux-gnu/libc.so.6
wctrans@@GLIBC_2.2.5                              /lib/x86_64-linux-gnu/libc.so.6
wctrans@GLIBC_2.2.5                               /lib/x86_64-linux-gnu/libc.so.6
wctrans_l                                         /lib/x86_64-linux-gnu/libc.so.6
wctrans_l@@GLIBC_2.3                              /lib/x86_64-linux-gnu/libc.so.6
wctrans_l@GLIBC_2.3                               /lib/x86_64-linux-gnu/libc.so.6
wctype                                            /lib/x86_64-linux-gnu/libc.so.6
wctype@@GLIBC_2.2.5                               /lib/x86_64-linux-gnu/libc.so.6
wctype@GLIBC_2.2.5                                /lib/x86_64-linux-gnu/libc.so.6
wctype_l                                          /lib/x86_64-linux-gnu/libc.so.6
wctype_l@@GLIBC_2.3                               /lib/x86_64-linux-gnu/libc.so.6
wctype_l@GLIBC_2.3                                /lib/x86_64-linux-gnu/libc.so.6
wmemcpy                                           /lib/x86_64-linux-gnu/libc.so.6
wmemcpy@@GLIBC_2.2.5                              /lib/x86_64-linux-gnu/libc.so.6
wmemcpy@GLIBC_2.2.5                               /lib/x86_64-linux-gnu/libc.so.6
wmemmove                                          /lib/x86_64-linux-gnu/libc.so.6
wmemmove@@GLIBC_2.2.5                             /lib/x86_64-linux-gnu/libc.so.6
wmemmove@GLIBC_2.2.5                              /lib/x86_64-linux-gnu/libc.so.6
wmempcpy                                          /lib/x86_64-linux-gnu/libc.so.6
wmempcpy@@GLIBC_2.2.5                             /lib/x86_64-linux-gnu/libc.so.6
wmempcpy@GLIBC_2.2.5                              /lib/x86_64-linux-gnu/libc.so.6
write                                             /lib/x86_64-linux-gnu/libpthread.so.0
                                                  /root/hpc/x86_64-native-linuxapp-gcc/lib/librte_cmdline.a(cmdline.o)
                                                  /root/hpc/x86_64-native-linuxapp-gcc/lib/librte_eal.a(eal_thread.o)
write@@GLIBC_2.2.5                                /lib/x86_64-linux-gnu/libpthread.so.0
                                                  /lib/x86_64-linux-gnu/libc.so.6
write@GLIBC_2.2.5                                 /lib/x86_64-linux-gnu/libpthread.so.0
                                                  /usr/lib/gcc/x86_64-linux-gnu/4.8/../../../x86_64-linux-gnu/librt.so
writev                                            /lib/x86_64-linux-gnu/libc.so.6
writev@@GLIBC_2.2.5                               /lib/x86_64-linux-gnu/libc.so.6
writev@GLIBC_2.2.5                                /lib/x86_64-linux-gnu/libc.so.6
y0l                                               /usr/lib/gcc/x86_64-linux-gnu/4.8/../../../x86_64-linux-gnu/libm.so
y0l@@GLIBC_2.2.5                                  /usr/lib/gcc/x86_64-linux-gnu/4.8/../../../x86_64-linux-gnu/libm.so
y0l@GLIBC_2.2.5                                   /usr/lib/gcc/x86_64-linux-gnu/4.8/../../../x86_64-linux-gnu/libm.so
y1l                                               /usr/lib/gcc/x86_64-linux-gnu/4.8/../../../x86_64-linux-gnu/libm.so
y1l@@GLIBC_2.2.5                                  /usr/lib/gcc/x86_64-linux-gnu/4.8/../../../x86_64-linux-gnu/libm.so
y1l@GLIBC_2.2.5                                   /usr/lib/gcc/x86_64-linux-gnu/4.8/../../../x86_64-linux-gnu/libm.so
ynl                                               /usr/lib/gcc/x86_64-linux-gnu/4.8/../../../x86_64-linux-gnu/libm.so
ynl@@GLIBC_2.2.5                                  /usr/lib/gcc/x86_64-linux-gnu/4.8/../../../x86_64-linux-gnu/libm.so
ynl@GLIBC_2.2.5                                   /usr/lib/gcc/x86_64-linux-gnu/4.8/../../../x86_64-linux-gnu/libm.so
